---
triple:          'arm64-apple-darwin'
binary-path:     '/Users/jomofisher/projects/dap/src/test/resources/fixtures/rust/spin'
relocations:
  - { offset: 0x1E, size: 0x8, addend: 0x0, symName: __ZN3std2io5error14repr_bitpacked11decode_repr17h2c5d1cf4e865778aE, symObjAddr: 0x0, symBinAddr: 0x100004300, symSize: 0x1DC }
  - { offset: 0x68, size: 0x8, addend: 0x0, symName: '__ZN3std2rt10lang_start28_$u7b$$u7b$closure$u7d$$u7d$17h7f3e22db6deb02eaE', symObjAddr: 0x6EC, symBinAddr: 0x1000049EC, symSize: 0x34 }
  - { offset: 0xD2, size: 0x8, addend: 0x0, symName: __ZN3std2rt10lang_start17h2b4c02329fc50983E, symObjAddr: 0x68C, symBinAddr: 0x10000498C, symSize: 0x60 }
  - { offset: 0x303, size: 0x8, addend: 0x0, symName: '__ZN78_$LT$std..io..error..repr_bitpacked..Repr$u20$as$u20$core..ops..drop..Drop$GT$4drop28_$u7b$$u7b$closure$u7d$$u7d$17h9a2950c7df170273E', symObjAddr: 0xEDC, symBinAddr: 0x100005194, symSize: 0x3C }
  - { offset: 0x3B8, size: 0x8, addend: 0x0, symName: '__ZN78_$LT$std..io..error..repr_bitpacked..Repr$u20$as$u20$core..ops..drop..Drop$GT$4drop17hbcb6a129a43adcbdE', symObjAddr: 0xEA4, symBinAddr: 0x10000515C, symSize: 0x38 }
  - { offset: 0x3E1, size: 0x8, addend: 0x0, symName: __ZN3std2io5error14repr_bitpacked11decode_repr17h2c5d1cf4e865778aE, symObjAddr: 0x0, symBinAddr: 0x100004300, symSize: 0x1DC }
  - { offset: 0x626, size: 0x8, addend: 0x0, symName: __ZN3std2io5error14repr_bitpacked14kind_from_prim17h81cc6f5c99d0cbc3E, symObjAddr: 0x1DC, symBinAddr: 0x1000044DC, symSize: 0x4B0 }
  - { offset: 0xEA8, size: 0x8, addend: 0x0, symName: __ZN3std3sys9backtrace28__rust_begin_short_backtrace17h6f069d4a0721c712E, symObjAddr: 0x720, symBinAddr: 0x100004A20, symSize: 0x24 }
  - { offset: 0xF53, size: 0x8, addend: 0x0, symName: '__ZN54_$LT$$LP$$RP$$u20$as$u20$std..process..Termination$GT$6report17h7af79c8329cc945aE', symObjAddr: 0xCC8, symBinAddr: 0x100004F80, symSize: 0x10 }
  - { offset: 0x14B8, size: 0x8, addend: 0x0, symName: '__ZN4core3ptr8non_null16NonNull$LT$T$GT$13new_unchecked18precondition_check17h90a21dfa59db8048E', symObjAddr: 0x9F8, symBinAddr: 0x100004CF8, symSize: 0x58 }
  - { offset: 0x15AF, size: 0x8, addend: 0x0, symName: '__ZN4core3ptr101drop_in_place$LT$std..io..error..ErrorData$LT$alloc..boxed..Box$LT$std..io..error..Custom$GT$$GT$$GT$17ha34953923768c7e9E', symObjAddr: 0x820, symBinAddr: 0x100004B20, symSize: 0x48 }
  - { offset: 0x15DE, size: 0x8, addend: 0x0, symName: '__ZN4core3ptr118drop_in_place$LT$alloc..boxed..Box$LT$dyn$u20$core..error..Error$u2b$core..marker..Sync$u2b$core..marker..Send$GT$$GT$17hd8bd04d4375f69faE', symObjAddr: 0x868, symBinAddr: 0x100004B68, symSize: 0x80 }
  - { offset: 0x160D, size: 0x8, addend: 0x0, symName: '__ZN4core3ptr42drop_in_place$LT$std..io..error..Error$GT$17h770c5eb71e1d96e7E', symObjAddr: 0x8E8, symBinAddr: 0x100004BE8, symSize: 0x24 }
  - { offset: 0x163C, size: 0x8, addend: 0x0, symName: '__ZN4core3ptr43drop_in_place$LT$std..io..error..Custom$GT$17ha8a237b9e2efede2E', symObjAddr: 0x90C, symBinAddr: 0x100004C0C, symSize: 0x24 }
  - { offset: 0x166B, size: 0x8, addend: 0x0, symName: '__ZN4core3ptr57drop_in_place$LT$std..io..error..repr_bitpacked..Repr$GT$17hb7180223a7232bc7E', symObjAddr: 0x930, symBinAddr: 0x100004C30, symSize: 0x24 }
  - { offset: 0x169A, size: 0x8, addend: 0x0, symName: '__ZN4core3ptr68drop_in_place$LT$alloc..boxed..Box$LT$std..io..error..Custom$GT$$GT$17he6397767d9bf5d1aE', symObjAddr: 0x954, symBinAddr: 0x100004C54, symSize: 0x60 }
  - { offset: 0x16C9, size: 0x8, addend: 0x0, symName: '__ZN4core3ptr81drop_in_place$LT$core..result..Result$LT$$LP$$RP$$C$std..io..error..Error$GT$$GT$17hf240cbcf80e5ce84E', symObjAddr: 0x9B4, symBinAddr: 0x100004CB4, symSize: 0x44 }
  - { offset: 0x1A1B, size: 0x8, addend: 0x0, symName: __ZN4core4hint21unreachable_unchecked18precondition_check17hc46caede2524bf64E, symObjAddr: 0xA98, symBinAddr: 0x100004D50, symSize: 0x3C }
  - { offset: 0x1A53, size: 0x8, addend: 0x0, symName: __ZN4core4hint9black_box17h49ca2104ae85df88E, symObjAddr: 0xAD4, symBinAddr: 0x100004D8C, symSize: 0x1C }
  - { offset: 0x1D0B, size: 0x8, addend: 0x0, symName: '__ZN4core3ops8function6FnOnce40call_once$u7b$$u7b$vtable.shim$u7d$$u7d$17h70b436e3cdfdbe9cE', symObjAddr: 0x78C, symBinAddr: 0x100004A8C, symSize: 0x28 }
  - { offset: 0x1D4F, size: 0x8, addend: 0x0, symName: __ZN4core3ops8function6FnOnce9call_once17h38cb14cf91a69e52E, symObjAddr: 0x7B4, symBinAddr: 0x100004AB4, symSize: 0x20 }
  - { offset: 0x1D8F, size: 0x8, addend: 0x0, symName: __ZN4core3ops8function6FnOnce9call_once17hac0e49f4f9bd4c77E, symObjAddr: 0x7D4, symBinAddr: 0x100004AD4, symSize: 0x4C }
  - { offset: 0x1E26, size: 0x8, addend: 0x0, symName: __ZN4core5alloc6layout6Layout25from_size_align_unchecked18precondition_check17hea4fa8ac721a9df4E, symObjAddr: 0xB28, symBinAddr: 0x100004DE0, symSize: 0x70 }
  - { offset: 0x2209, size: 0x8, addend: 0x0, symName: __ZN4core3fmt2rt8Argument11new_display17h02ddc2be51702488E, symObjAddr: 0x744, symBinAddr: 0x100004A44, symSize: 0x2C }
  - { offset: 0x2275, size: 0x8, addend: 0x0, symName: __ZN4core3fmt9Arguments3new17h64eb8552745723abE, symObjAddr: 0x770, symBinAddr: 0x100004A70, symSize: 0x1C }
  - { offset: 0x22A7, size: 0x8, addend: 0x0, symName: __ZN4core4time8Duration11from_millis17hbd758050c470e311E, symObjAddr: 0xAF0, symBinAddr: 0x100004DA8, symSize: 0x38 }
  - { offset: 0x22D6, size: 0x8, addend: 0x0, symName: '__ZN4core6result19Result$LT$T$C$E$GT$2ok17hdf8486df697785bdE', symObjAddr: 0xB98, symBinAddr: 0x100004E50, symSize: 0x6C }
  - { offset: 0x232E, size: 0x8, addend: 0x0, symName: __ZN4spin4main17h9ebc659960361c58E, symObjAddr: 0xC04, symBinAddr: 0x100004EBC, symSize: 0xC4 }
  - { offset: 0x2428, size: 0x8, addend: 0x0, symName: '__ZN63_$LT$alloc..alloc..Global$u20$as$u20$core..alloc..Allocator$GT$10deallocate17hf28cf6b2604b4456E', symObjAddr: 0xCD8, symBinAddr: 0x100004F90, symSize: 0x58 }
  - { offset: 0x24C8, size: 0x8, addend: 0x0, symName: '__ZN72_$LT$alloc..boxed..Box$LT$T$C$A$GT$$u20$as$u20$core..ops..drop..Drop$GT$4drop17h8515a0ea075cc9f1E', symObjAddr: 0xD30, symBinAddr: 0x100004FE8, symSize: 0xC4 }
  - { offset: 0x2601, size: 0x8, addend: 0x0, symName: '__ZN72_$LT$alloc..boxed..Box$LT$T$C$A$GT$$u20$as$u20$core..ops..drop..Drop$GT$4drop17h8710da9beaf4b934E', symObjAddr: 0xDF4, symBinAddr: 0x1000050AC, symSize: 0xB0 }
  - { offset: 0x2A08, size: 0x8, addend: 0x0, symName: __RNvCshXwFllX56pT_7___rustc10rust_panic, symObjAddr: 0x0, symBinAddr: 0x100035B24, symSize: 0x48 }
  - { offset: 0x2A1F, size: 0x8, addend: 0x0, symName: __RNvCshXwFllX56pT_7___rustc10rust_panic, symObjAddr: 0x0, symBinAddr: 0x100035B24, symSize: 0x48 }
  - { offset: 0x2A39, size: 0x8, addend: 0x0, symName: __RNvCshXwFllX56pT_7___rustc17___rust_drop_panic, symObjAddr: 0x174, symBinAddr: 0x100005338, symSize: 0x118 }
  - { offset: 0x2D07, size: 0x8, addend: 0x0, symName: __RNvCshXwFllX56pT_7___rustc17rust_begin_unwind, symObjAddr: 0x28C, symBinAddr: 0x100005450, symSize: 0x20 }
  - { offset: 0x2D37, size: 0x8, addend: 0x0, symName: __RNvCshXwFllX56pT_7___rustc24___rust_foreign_exception, symObjAddr: 0x33C, symBinAddr: 0x100005500, symSize: 0x118 }
  - { offset: 0x306F, size: 0x8, addend: 0x0, symName: __ZN3std9panicking11panic_count17is_zero_slow_path17h45c11ed097613adbE, symObjAddr: 0x21950, symBinAddr: 0x1000365E8, symSize: 0x2C }
  - { offset: 0x311B, size: 0x8, addend: 0x0, symName: __ZN3std9panicking11panic_count8increase17heddce66a1a4314f9E, symObjAddr: 0x219E0, symBinAddr: 0x100010F54, symSize: 0x64 }
  - { offset: 0x3132, size: 0x8, addend: 0x0, symName: __ZN3std9panicking11panic_count8increase17heddce66a1a4314f9E, symObjAddr: 0x219E0, symBinAddr: 0x100010F54, symSize: 0x64 }
  - { offset: 0x3147, size: 0x8, addend: 0x0, symName: __ZN3std9panicking11panic_count8increase17heddce66a1a4314f9E, symObjAddr: 0x219E0, symBinAddr: 0x100010F54, symSize: 0x64 }
  - { offset: 0x330B, size: 0x8, addend: 0x0, symName: '__ZN3std9panicking12default_hook28_$u7b$$u7b$closure$u7d$$u7d$17ha0993a93f6e4994dE', symObjAddr: 0x21BE4, symBinAddr: 0x1000110F4, symSize: 0x134 }
  - { offset: 0x343A, size: 0x8, addend: 0x0, symName: __ZN3std9panicking12default_hook17h7aae5c8c53b8a669E, symObjAddr: 0x21AA8, symBinAddr: 0x100010FB8, symSize: 0x13C }
  - { offset: 0x35C2, size: 0x8, addend: 0x0, symName: '__ZN3std9panicking13panic_handler28_$u7b$$u7b$closure$u7d$$u7d$17hb04320f9e43192c5E', symObjAddr: 0x21D18, symBinAddr: 0x100011228, symSize: 0x9C }
  - { offset: 0x370D, size: 0x8, addend: 0x0, symName: '__ZN86_$LT$std..panicking..panic_handler..StaticStrPayload$u20$as$u20$core..fmt..Display$GT$3fmt17hc96323a81aca3b09E', symObjAddr: 0x49E20, symBinAddr: 0x100025A18, symSize: 0x10 }
  - { offset: 0x372D, size: 0x8, addend: 0x0, symName: '__ZN89_$LT$std..panicking..panic_handler..FormatStringPayload$u20$as$u20$core..fmt..Display$GT$3fmt17hbfde7ce34a2fc737E', symObjAddr: 0x4A1BC, symBinAddr: 0x100025A28, symSize: 0x34 }
  - { offset: 0x3827, size: 0x8, addend: 0x0, symName: '__ZN93_$LT$std..panicking..panic_handler..StaticStrPayload$u20$as$u20$core..panic..PanicPayload$GT$3get17h8e3cf57de48a09adE', symObjAddr: 0x4A80C, symBinAddr: 0x100025AC4, symSize: 0xC }
  - { offset: 0x3841, size: 0x8, addend: 0x0, symName: '__ZN93_$LT$std..panicking..panic_handler..StaticStrPayload$u20$as$u20$core..panic..PanicPayload$GT$6as_str17h19fa289a55d6a29fE', symObjAddr: 0x4A818, symBinAddr: 0x100025AD0, symSize: 0xC }
  - { offset: 0x385B, size: 0x8, addend: 0x0, symName: '__ZN93_$LT$std..panicking..panic_handler..StaticStrPayload$u20$as$u20$core..panic..PanicPayload$GT$8take_box17h469a0b8bb3e8b86bE', symObjAddr: 0x4A824, symBinAddr: 0x100025ADC, symSize: 0x48 }
  - { offset: 0x3903, size: 0x8, addend: 0x0, symName: '__ZN96_$LT$std..panicking..panic_handler..FormatStringPayload$u20$as$u20$core..panic..PanicPayload$GT$3get17h99898ee75992544dE', symObjAddr: 0x4AF48, symBinAddr: 0x100025F40, symSize: 0xA0 }
  - { offset: 0x3A33, size: 0x8, addend: 0x0, symName: '__ZN96_$LT$std..panicking..panic_handler..FormatStringPayload$u20$as$u20$core..panic..PanicPayload$GT$8take_box17hd6f16c16bcdd9cedE', symObjAddr: 0x4AFE8, symBinAddr: 0x100025FE0, symSize: 0x108 }
  - { offset: 0x3CAE, size: 0x8, addend: 0x0, symName: __ZN3std9panicking14payload_as_str17haefdc7488caf86efE, symObjAddr: 0x21E6C, symBinAddr: 0x1000112C4, symSize: 0xC8 }
  - { offset: 0x3DF2, size: 0x8, addend: 0x0, symName: __ZN3std9panicking15panic_with_hook17hb885411bb59bebf4E, symObjAddr: 0x21F34, symBinAddr: 0x10001138C, symSize: 0x388 }
  - { offset: 0x4606, size: 0x8, addend: 0x0, symName: '__ZN64_$LT$std..sys..stdio..unix..Stderr$u20$as$u20$std..io..Write$GT$14write_vectored17h250ff39af684cb41E', symObjAddr: 0x445D0, symBinAddr: 0x1000244B8, symSize: 0x54 }
  - { offset: 0x46DB, size: 0x8, addend: 0x0, symName: '__ZN64_$LT$std..sys..stdio..unix..Stderr$u20$as$u20$std..io..Write$GT$17is_write_vectored17h30a94d90a8a85ab4E', symObjAddr: 0x44624, symBinAddr: 0x10002450C, symSize: 0x8 }
  - { offset: 0x46F4, size: 0x8, addend: 0x0, symName: '__ZN64_$LT$std..sys..stdio..unix..Stderr$u20$as$u20$std..io..Write$GT$5flush17h9bac4f9e0e51b44eE', symObjAddr: 0x4462C, symBinAddr: 0x100024514, symSize: 0x8 }
  - { offset: 0x470D, size: 0x8, addend: 0x0, symName: '__ZN64_$LT$std..sys..stdio..unix..Stderr$u20$as$u20$std..io..Write$GT$5write17hec38f496b3e1443cE', symObjAddr: 0x44634, symBinAddr: 0x10002451C, symSize: 0x54 }
  - { offset: 0x4897, size: 0x8, addend: 0x0, symName: __ZN3std3sys3pal4unix14stack_overflow11thread_info16set_current_info17hfccf8fcb816efe47E, symObjAddr: 0x14918, symBinAddr: 0x10000DCB8, symSize: 0xD04 }
  - { offset: 0x67EB, size: 0x8, addend: 0x0, symName: __ZN3std3sys3pal4unix14stack_overflow3imp12drop_handler17h503a881078033c2dE, symObjAddr: 0x1561C, symBinAddr: 0x10000E9BC, symSize: 0x3A0 }
  - { offset: 0x6FF3, size: 0x8, addend: 0x0, symName: __ZN3std3sys3pal4unix14stack_overflow3imp12make_handler17hcbdfac508e00055fE, symObjAddr: 0x159BC, symBinAddr: 0x10000ED5C, symSize: 0x194 }
  - { offset: 0x7246, size: 0x8, addend: 0x0, symName: __ZN3std3sys3pal4unix14stack_overflow3imp14signal_handler17h89f45eec0e9d2490E, symObjAddr: 0x15B50, symBinAddr: 0x10000EEF0, symSize: 0x2DC }
  - { offset: 0x78C9, size: 0x8, addend: 0x0, symName: __ZN3std3sys3pal4unix4sync5mutex5Mutex4init17ha789dcd9cd89f57cE, symObjAddr: 0x164A0, symBinAddr: 0x10000F31C, symSize: 0x168 }
  - { offset: 0x7992, size: 0x8, addend: 0x0, symName: __ZN3std3sys3pal4unix4sync5mutex5Mutex4lock4fail17h6eba5fa01da6e203E, symObjAddr: 0x16624, symBinAddr: 0x100035D14, symSize: 0xD4 }
  - { offset: 0x7C21, size: 0x8, addend: 0x0, symName: __ZN3std3sys3pal4unix14abort_internal17h111ed782a3d16dc7E, symObjAddr: 0x1490C, symBinAddr: 0x100035D08, symSize: 0xC }
  - { offset: 0x7C3B, size: 0x8, addend: 0x0, symName: __ZN3std3sys3pal4unix17decode_error_kind17h7eaf32abc72a6956E, symObjAddr: 0x15E2C, symBinAddr: 0x10000F1CC, symSize: 0x150 }
  - { offset: 0x7CD8, size: 0x8, addend: 0x0, symName: __ZN3std3sys3pal6common14small_c_string24run_with_cstr_allocating17h47a2667b153056b9E, symObjAddr: 0x16A80, symBinAddr: 0x100035DE8, symSize: 0xC0 }
  - { offset: 0x7EB4, size: 0x8, addend: 0x0, symName: __ZN3std3sys3pal6common14small_c_string24run_with_cstr_allocating17h4b48d2af9b68c9ebE, symObjAddr: 0x16B40, symBinAddr: 0x100035EA8, symSize: 0xB4 }
  - { offset: 0x807C, size: 0x8, addend: 0x0, symName: __ZN3std3sys3pal6common14small_c_string24run_with_cstr_allocating17h89b923f6c4be1283E, symObjAddr: 0x16D80, symBinAddr: 0x100035F5C, symSize: 0xA4 }
  - { offset: 0x8214, size: 0x8, addend: 0x0, symName: __ZN3std3sys12thread_local6native5eager7destroy17hef39cbfcdc30418cE, symObjAddr: 0xF180, symBinAddr: 0x10000D610, symSize: 0x2C }
  - { offset: 0x83AF, size: 0x8, addend: 0x0, symName: __ZN3std3sys12thread_local5guard5apple6enable9run_dtors17hadb8cf8c638b3582E, symObjAddr: 0xF00C, symBinAddr: 0x10000D520, symSize: 0xF0 }
  - { offset: 0x8840, size: 0x8, addend: 0x0, symName: __ZN3std3sys12thread_local11destructors4list8register17ha25af605773d94bcE, symObjAddr: 0xEF10, symBinAddr: 0x10000D424, symSize: 0xFC }
  - { offset: 0x8B3E, size: 0x8, addend: 0x0, symName: __ZN3std3sys3env4unix13env_read_lock17h40a912cce48132b4E, symObjAddr: 0x1342C, symBinAddr: 0x10000D958, symSize: 0x230 }
  - { offset: 0x9207, size: 0x8, addend: 0x0, symName: '__ZN3std3sys3env4unix6getenv28_$u7b$$u7b$closure$u7d$$u7d$17h705e6f64f10d506aE', symObjAddr: 0x1365C, symBinAddr: 0x10000DB88, symSize: 0x130 }
  - { offset: 0x9437, size: 0x8, addend: 0x0, symName: __ZN3std3sys2fs4unix4File6open_c17h5f49f53c346fe654E, symObjAddr: 0x11CA0, symBinAddr: 0x10000D63C, symSize: 0x1A0 }
  - { offset: 0x95AC, size: 0x8, addend: 0x0, symName: '__ZN65_$LT$std..sys..fs..unix..Dir$u20$as$u20$core..ops..drop..Drop$GT$4drop17h5fb63eb506e6bf74E', symObjAddr: 0x44938, symBinAddr: 0x100024570, symSize: 0xB4 }
  - { offset: 0x9673, size: 0x8, addend: 0x0, symName: __ZN3std3sys2fs8read_dir17h302bd5d3caaeb353E, symObjAddr: 0x12CD0, symBinAddr: 0x10000D7DC, symSize: 0x17C }
  - { offset: 0x9A1A, size: 0x8, addend: 0x0, symName: '__ZN3std3sys4sync8once_box16OnceBox$LT$T$GT$10initialize17hbbacba80bd3104baE', symObjAddr: 0x17E78, symBinAddr: 0x100036280, symSize: 0xE4 }
  - { offset: 0x9CC8, size: 0x8, addend: 0x0, symName: __ZN3std3sys4sync4once5queue4Once4call17h3e41a5ec638e0eddE, symObjAddr: 0x1728C, symBinAddr: 0x100036000, symSize: 0x200 }
  - { offset: 0x9F96, size: 0x8, addend: 0x0, symName: '__ZN82_$LT$std..sys..sync..once..queue..WaiterQueue$u20$as$u20$core..ops..drop..Drop$GT$4drop17h131bf1b8f1dcf278E', symObjAddr: 0x49778, symBinAddr: 0x100025768, symSize: 0xDC }
  - { offset: 0xA185, size: 0x8, addend: 0x0, symName: __ZN3std3sys4sync4once5queue4wait17h82100156577ff708E, symObjAddr: 0x17658, symBinAddr: 0x10000F484, symSize: 0x184 }
  - { offset: 0xA6F8, size: 0x8, addend: 0x0, symName: __ZN3std3sys4sync6rwlock5queue6RwLock12unlock_queue17ha229124a59838688E, symObjAddr: 0x177F0, symBinAddr: 0x10000F608, symSize: 0x1BC }
  - { offset: 0xAD52, size: 0x8, addend: 0x0, symName: __ZN3std3sys4sync6rwlock5queue6RwLock16unlock_contended17h5028e77bc6335836E, symObjAddr: 0x17CA8, symBinAddr: 0x100036200, symSize: 0x40 }
  - { offset: 0xAE18, size: 0x8, addend: 0x0, symName: __ZN3std3sys4sync6rwlock5queue6RwLock21read_unlock_contended17h79bf993872facf3bE, symObjAddr: 0x17CE8, symBinAddr: 0x100036240, symSize: 0x40 }
  - { offset: 0xAE36, size: 0x8, addend: 0x0, symName: __ZN3std3sys4sync6rwlock5queue6RwLock21read_unlock_contended17h79bf993872facf3bE, symObjAddr: 0x17CE8, symBinAddr: 0x100036240, symSize: 0x40 }
  - { offset: 0xAE4B, size: 0x8, addend: 0x0, symName: __ZN3std3sys4sync6rwlock5queue6RwLock21read_unlock_contended17h79bf993872facf3bE, symObjAddr: 0x17CE8, symBinAddr: 0x100036240, symSize: 0x40 }
  - { offset: 0xB064, size: 0x8, addend: 0x0, symName: '__ZN83_$LT$std..sys..sync..rwlock..queue..PanicGuard$u20$as$u20$core..ops..drop..Drop$GT$4drop17h102a4575c5d48e7cE', symObjAddr: 0x499F4, symBinAddr: 0x100039960, symSize: 0x30 }
  - { offset: 0xB119, size: 0x8, addend: 0x0, symName: '__ZN3std3sys11personality3gcc14find_eh_action28_$u7b$$u7b$closure$u7d$$u7d$17h407435927a582f92E', symObjAddr: 0xEDB0, symBinAddr: 0x10000D2C4, symSize: 0xC }
  - { offset: 0xB12C, size: 0x8, addend: 0x0, symName: '__ZN3std3sys11personality3gcc14find_eh_action28_$u7b$$u7b$closure$u7d$$u7d$17hbcd0bca45dcff645E', symObjAddr: 0xEDBC, symBinAddr: 0x10000D2D0, symSize: 0xC }
  - { offset: 0xB173, size: 0x8, addend: 0x0, symName: _rust_eh_personality, symObjAddr: 0x4DC6C, symBinAddr: 0x10002898C, symSize: 0x378 }
  - { offset: 0xB49D, size: 0x8, addend: 0x0, symName: __ZN3std3sys11personality5dwarf2eh19read_encoded_offset17hc2169b5dd02614d6E, symObjAddr: 0xEDC8, symBinAddr: 0x10000D2DC, symSize: 0x148 }
  - { offset: 0xB5EE, size: 0x8, addend: 0x0, symName: '__ZN3std3sys9backtrace10_print_fmt28_$u7b$$u7b$closure$u7d$$u7d$17h3caa4c7e5d77f84cE', symObjAddr: 0x1AF10, symBinAddr: 0x10000F7C4, symSize: 0x134 }
  - { offset: 0xB6E9, size: 0x8, addend: 0x0, symName: '__ZN3std3sys9backtrace10_print_fmt28_$u7b$$u7b$closure$u7d$$u7d$17h5f17e29e13815b81E', symObjAddr: 0x1B044, symBinAddr: 0x10000F8F8, symSize: 0x24 }
  - { offset: 0xB728, size: 0x8, addend: 0x0, symName: '__ZN3std3sys9backtrace10_print_fmt28_$u7b$$u7b$closure$u7d$$u7d$28_$u7b$$u7b$closure$u7d$$u7d$17heb15e31920de2047E', symObjAddr: 0x1B068, symBinAddr: 0x10000F91C, symSize: 0x244 }
  - { offset: 0xB94B, size: 0x8, addend: 0x0, symName: __ZN3std3sys9backtrace15output_filename17h66d7868146cf3be5E, symObjAddr: 0x1B2AC, symBinAddr: 0x10000FB60, symSize: 0xE0 }
  - { offset: 0xBA8A, size: 0x8, addend: 0x0, symName: __ZN3std3sys9backtrace26__rust_end_short_backtrace17h179837de08e394a0E, symObjAddr: 0x1B38C, symBinAddr: 0x100036364, symSize: 0xC }
  - { offset: 0xBAA3, size: 0x8, addend: 0x0, symName: __ZN3std3sys9backtrace26__rust_end_short_backtrace17ha3c55a1c4767eecfE, symObjAddr: 0x1B3A4, symBinAddr: 0x10000FC40, symSize: 0xC }
  - { offset: 0xBABC, size: 0x8, addend: 0x0, symName: __ZN3std3sys9backtrace4lock17h9eec6ffaf64fbcccE, symObjAddr: 0x1B3B0, symBinAddr: 0x10000FC4C, symSize: 0x70 }
  - { offset: 0xBC36, size: 0x8, addend: 0x0, symName: '__ZN98_$LT$std..sys..backtrace..BacktraceLock..print..DisplayBacktrace$u20$as$u20$core..fmt..Display$GT$3fmt17h8c5ab870ebd4c242E', symObjAddr: 0x4B2BC, symBinAddr: 0x1000260E8, symSize: 0x210 }
  - { offset: 0xC127, size: 0x8, addend: 0x0, symName: __RNvCshXwFllX56pT_7___rustc11___rdl_alloc, symObjAddr: 0x48, symBinAddr: 0x100005218, symSize: 0x6C }
  - { offset: 0xC1A4, size: 0x8, addend: 0x0, symName: __RNvCshXwFllX56pT_7___rustc13___rdl_dealloc, symObjAddr: 0xC0, symBinAddr: 0x100005284, symSize: 0x4 }
  - { offset: 0xC1C2, size: 0x8, addend: 0x0, symName: __RNvCshXwFllX56pT_7___rustc13___rdl_dealloc, symObjAddr: 0xC0, symBinAddr: 0x100005284, symSize: 0x4 }
  - { offset: 0xC1D4, size: 0x8, addend: 0x0, symName: __RNvCshXwFllX56pT_7___rustc13___rdl_realloc, symObjAddr: 0xC4, symBinAddr: 0x100005288, symSize: 0xB0 }
  - { offset: 0xC2A7, size: 0x8, addend: 0x0, symName: __RNvCshXwFllX56pT_7___rustc18___rdl_alloc_zeroed, symObjAddr: 0x2AC, symBinAddr: 0x100005470, symSize: 0x90 }
  - { offset: 0xC34B, size: 0x8, addend: 0x0, symName: __RNvCshXwFllX56pT_7___rustc26___rust_alloc_error_handler, symObjAddr: 0x454, symBinAddr: 0x100035B6C, symSize: 0x18 }
  - { offset: 0xC390, size: 0x8, addend: 0x0, symName: __ZN3std5alloc24default_alloc_error_hook17hd55c569ad4145d87E, symObjAddr: 0x1F008, symBinAddr: 0x100010760, symSize: 0x134 }
  - { offset: 0xC400, size: 0x8, addend: 0x0, symName: __ZN3std5alloc8rust_oom17h57ea79c83371d333E, symObjAddr: 0x1F13C, symBinAddr: 0x100036434, symSize: 0x18 }
  - { offset: 0xC41F, size: 0x8, addend: 0x0, symName: '__ZN3std5alloc8rust_oom28_$u7b$$u7b$closure$u7d$$u7d$17hd4c3c732f9f12b59E', symObjAddr: 0x1F154, symBinAddr: 0x10003644C, symSize: 0x34 }
  - { offset: 0xC48A, size: 0x8, addend: 0x0, symName: __ZN3std2rt15handle_rt_panic17hd6f26e1f16468344E, symObjAddr: 0xBF94, symBinAddr: 0x100035CA8, symSize: 0x30 }
  - { offset: 0xC4D7, size: 0x8, addend: 0x0, symName: '__ZN3std2rt19lang_start_internal28_$u7b$$u7b$closure$u7d$$u7d$28_$u7b$$u7b$closure$u7d$$u7d$28_$u7b$$u7b$closure$u7d$$u7d$17he140efc5dc7f70a2E', symObjAddr: 0xC5DC, symBinAddr: 0x100035CD8, symSize: 0x30 }
  - { offset: 0xC50B, size: 0x8, addend: 0x0, symName: __ZN3std2rt19lang_start_internal17h0662b076b027b010E, symObjAddr: 0xBFC4, symBinAddr: 0x10000C9B4, symSize: 0x618 }
  - { offset: 0xCFA4, size: 0x8, addend: 0x0, symName: __ZN3std2io5Write18write_all_vectored17h8ad69781cb013644E, symObjAddr: 0x9118, symBinAddr: 0x10000B5CC, symSize: 0x184 }
  - { offset: 0xD1A7, size: 0x8, addend: 0x0, symName: __ZN3std2io5Write9write_all17h5556be30f395b35fE, symObjAddr: 0x929C, symBinAddr: 0x10000B750, symSize: 0xAC }
  - { offset: 0xD26A, size: 0x8, addend: 0x0, symName: __ZN3std2io5Write9write_fmt17h3e2818c92b86d99fE, symObjAddr: 0x9348, symBinAddr: 0x10000B7FC, symSize: 0x118 }
  - { offset: 0xD49D, size: 0x8, addend: 0x0, symName: __ZN3std2io5Write9write_fmt17h6f94f9186df343caE, symObjAddr: 0x9460, symBinAddr: 0x10000B914, symSize: 0x118 }
  - { offset: 0xD6D0, size: 0x8, addend: 0x0, symName: __ZN3std2io5Write9write_fmt17h947344a43c638468E, symObjAddr: 0x9578, symBinAddr: 0x10000BA2C, symSize: 0x118 }
  - { offset: 0xD948, size: 0x8, addend: 0x0, symName: __ZN3std2io5error5Error3new17h949302c01fe11b24E, symObjAddr: 0x9768, symBinAddr: 0x10000BB44, symSize: 0x110 }
  - { offset: 0xDD81, size: 0x8, addend: 0x0, symName: '__ZN3std2io5error83_$LT$impl$u20$core..fmt..Debug$u20$for$u20$std..io..error..repr_bitpacked..Repr$GT$3fmt17h62fc45abe2a9bb17E', symObjAddr: 0x98F4, symBinAddr: 0x10000BC54, symSize: 0x280 }
  - { offset: 0xDFC3, size: 0x8, addend: 0x0, symName: '__ZN58_$LT$std..io..error..Error$u20$as$u20$core..fmt..Debug$GT$3fmt17heced06dcf81bbc5fE', symObjAddr: 0x33508, symBinAddr: 0x10001BA28, symSize: 0x4 }
  - { offset: 0xDFDC, size: 0x8, addend: 0x0, symName: '__ZN60_$LT$std..io..error..Error$u20$as$u20$core..fmt..Display$GT$3fmt17h548d231ec88e79ebE', symObjAddr: 0x40728, symBinAddr: 0x100023C50, symSize: 0x1A8 }
  - { offset: 0xE1FC, size: 0x8, addend: 0x0, symName: '__ZN62_$LT$std..io..error..ErrorKind$u20$as$u20$core..fmt..Debug$GT$3fmt17h8c52f3a66c182e0bE', symObjAddr: 0x43378, symBinAddr: 0x100024398, symSize: 0x28 }
  - { offset: 0xE27C, size: 0x8, addend: 0x0, symName: '__ZN3std2io8buffered9bufwriter18BufWriter$LT$W$GT$14write_all_cold17h3ff8ac86fa855879E', symObjAddr: 0xAAD0, symBinAddr: 0x100035B84, symSize: 0x124 }
  - { offset: 0xE4A3, size: 0x8, addend: 0x0, symName: '__ZN3std2io8buffered9bufwriter18BufWriter$LT$W$GT$9flush_buf17hf053586fa2da2c08E', symObjAddr: 0xABF4, symBinAddr: 0x10000C7D4, symSize: 0x1E0 }
  - { offset: 0xEA1B, size: 0x8, addend: 0x0, symName: __ZN3std2io5stdio22try_set_output_capture17h3c315e184c9365eeE, symObjAddr: 0xA084, symBinAddr: 0x10000C2E0, symSize: 0xEC }
  - { offset: 0xECB9, size: 0x8, addend: 0x0, symName: __ZN3std2io5stdio31print_to_buffer_if_capture_used17h0661bd51b7222fbdE, symObjAddr: 0xA24C, symBinAddr: 0x10000C3CC, symSize: 0x214 }
  - { offset: 0xF391, size: 0x8, addend: 0x0, symName: __ZN3std2io5stdio6Stderr4lock17hf24fbe7c90c6b1eeE, symObjAddr: 0xA6C4, symBinAddr: 0x10000C5E0, symSize: 0xE4 }
  - { offset: 0xF656, size: 0x8, addend: 0x0, symName: '__ZN57_$LT$std..io..stdio..Stdout$u20$as$u20$std..io..Write$GT$5flush17hf1b01f075a035fd3E', symObjAddr: 0x32FD0, symBinAddr: 0x10001B854, symSize: 0x24 }
  - { offset: 0xF671, size: 0x8, addend: 0x0, symName: __ZN3std2io5stdio6_print17h57f04a675fa7f70aE, symObjAddr: 0xA7A8, symBinAddr: 0x10000C6C4, symSize: 0xD8 }
  - { offset: 0xF75A, size: 0x8, addend: 0x0, symName: __ZN3std2io5stdio6stdout17h180ae9adbe205903E, symObjAddr: 0xA880, symBinAddr: 0x10000C79C, symSize: 0x38 }
  - { offset: 0xF78B, size: 0x8, addend: 0x0, symName: __ZN3std2io5stdio6stdout17h180ae9adbe205903E, symObjAddr: 0xA880, symBinAddr: 0x10000C79C, symSize: 0x38 }
  - { offset: 0xF7A0, size: 0x8, addend: 0x0, symName: __ZN3std2io5stdio6stdout17h180ae9adbe205903E, symObjAddr: 0xA880, symBinAddr: 0x10000C79C, symSize: 0x38 }
  - { offset: 0xF7B4, size: 0x8, addend: 0x0, symName: __ZN3std2io5stdio6stdout17h180ae9adbe205903E, symObjAddr: 0xA880, symBinAddr: 0x10000C79C, symSize: 0x38 }
  - { offset: 0xF7C9, size: 0x8, addend: 0x0, symName: __ZN3std2io5stdio6stdout17h180ae9adbe205903E, symObjAddr: 0xA880, symBinAddr: 0x10000C79C, symSize: 0x38 }
  - { offset: 0xF7DE, size: 0x8, addend: 0x0, symName: __ZN3std2io5stdio6stdout17h180ae9adbe205903E, symObjAddr: 0xA880, symBinAddr: 0x10000C79C, symSize: 0x38 }
  - { offset: 0xF7F2, size: 0x8, addend: 0x0, symName: __ZN3std2io5stdio6stdout17h180ae9adbe205903E, symObjAddr: 0xA880, symBinAddr: 0x10000C79C, symSize: 0x38 }
  - { offset: 0xF879, size: 0x8, addend: 0x0, symName: '__ZN61_$LT$$RF$std..io..stdio..Stdout$u20$as$u20$std..io..Write$GT$5flush17hab2834ef537a6af2E', symObjAddr: 0x41ACC, symBinAddr: 0x100023DF8, symSize: 0xBC }
  - { offset: 0xFC35, size: 0x8, addend: 0x0, symName: '__ZN61_$LT$$RF$std..io..stdio..Stdout$u20$as$u20$std..io..Write$GT$9write_fmt17h9a360548a49380aaE', symObjAddr: 0x41CD0, symBinAddr: 0x100023EB4, symSize: 0x184 }
  - { offset: 0x1001F, size: 0x8, addend: 0x0, symName: '__ZN61_$LT$std..io..stdio..StdoutLock$u20$as$u20$std..io..Write$GT$9write_all17h1f9f2d857fab7347E', symObjAddr: 0x4278C, symBinAddr: 0x100024038, symSize: 0x22C }
  - { offset: 0x10727, size: 0x8, addend: 0x0, symName: '__ZN3std2io5impls74_$LT$impl$u20$std..io..Write$u20$for$u20$alloc..vec..Vec$LT$u8$C$A$GT$$GT$14write_vectored17h5b8f1444907f4a81E', symObjAddr: 0x9B74, symBinAddr: 0x10000BED4, symSize: 0x184 }
  - { offset: 0x10974, size: 0x8, addend: 0x0, symName: '__ZN3std2io5impls74_$LT$impl$u20$std..io..Write$u20$for$u20$alloc..vec..Vec$LT$u8$C$A$GT$$GT$17is_write_vectored17h4e219e106b44d2f1E', symObjAddr: 0x9CF8, symBinAddr: 0x10000C058, symSize: 0x8 }
  - { offset: 0x1099B, size: 0x8, addend: 0x0, symName: '__ZN3std2io5impls74_$LT$impl$u20$std..io..Write$u20$for$u20$alloc..vec..Vec$LT$u8$C$A$GT$$GT$18write_all_vectored17ha0be24e2310e789fE', symObjAddr: 0x9D00, symBinAddr: 0x10000C060, symSize: 0x174 }
  - { offset: 0x109B9, size: 0x8, addend: 0x0, symName: '__ZN3std2io5impls74_$LT$impl$u20$std..io..Write$u20$for$u20$alloc..vec..Vec$LT$u8$C$A$GT$$GT$18write_all_vectored17ha0be24e2310e789fE', symObjAddr: 0x9D00, symBinAddr: 0x10000C060, symSize: 0x174 }
  - { offset: 0x109CE, size: 0x8, addend: 0x0, symName: '__ZN3std2io5impls74_$LT$impl$u20$std..io..Write$u20$for$u20$alloc..vec..Vec$LT$u8$C$A$GT$$GT$18write_all_vectored17ha0be24e2310e789fE', symObjAddr: 0x9D00, symBinAddr: 0x10000C060, symSize: 0x174 }
  - { offset: 0x109E3, size: 0x8, addend: 0x0, symName: '__ZN3std2io5impls74_$LT$impl$u20$std..io..Write$u20$for$u20$alloc..vec..Vec$LT$u8$C$A$GT$$GT$18write_all_vectored17ha0be24e2310e789fE', symObjAddr: 0x9D00, symBinAddr: 0x10000C060, symSize: 0x174 }
  - { offset: 0x109F8, size: 0x8, addend: 0x0, symName: '__ZN3std2io5impls74_$LT$impl$u20$std..io..Write$u20$for$u20$alloc..vec..Vec$LT$u8$C$A$GT$$GT$18write_all_vectored17ha0be24e2310e789fE', symObjAddr: 0x9D00, symBinAddr: 0x10000C060, symSize: 0x174 }
  - { offset: 0x10A0C, size: 0x8, addend: 0x0, symName: '__ZN3std2io5impls74_$LT$impl$u20$std..io..Write$u20$for$u20$alloc..vec..Vec$LT$u8$C$A$GT$$GT$18write_all_vectored17ha0be24e2310e789fE', symObjAddr: 0x9D00, symBinAddr: 0x10000C060, symSize: 0x174 }
  - { offset: 0x10C3D, size: 0x8, addend: 0x0, symName: '__ZN3std2io5impls74_$LT$impl$u20$std..io..Write$u20$for$u20$alloc..vec..Vec$LT$u8$C$A$GT$$GT$5flush17he4ae8498fd90331eE', symObjAddr: 0x9E74, symBinAddr: 0x10000C1D4, symSize: 0x8 }
  - { offset: 0x10C57, size: 0x8, addend: 0x0, symName: '__ZN3std2io5impls74_$LT$impl$u20$std..io..Write$u20$for$u20$alloc..vec..Vec$LT$u8$C$A$GT$$GT$5write17hd7607dc1feaafa84E', symObjAddr: 0x9E7C, symBinAddr: 0x10000C1DC, symSize: 0x84 }
  - { offset: 0x10D9B, size: 0x8, addend: 0x0, symName: '__ZN3std2io5impls74_$LT$impl$u20$std..io..Write$u20$for$u20$alloc..vec..Vec$LT$u8$C$A$GT$$GT$9write_all17hcfe117cc00015cdeE', symObjAddr: 0x9F00, symBinAddr: 0x10000C260, symSize: 0x80 }
  - { offset: 0x10FF0, size: 0x8, addend: 0x0, symName: '__ZN81_$LT$std..io..default_write_fmt..Adapter$LT$T$GT$$u20$as$u20$core..fmt..Write$GT$9write_str17h11c235cc40b77d46E', symObjAddr: 0x48C90, symBinAddr: 0x100025520, symSize: 0x50 }
  - { offset: 0x11019, size: 0x8, addend: 0x0, symName: '__ZN81_$LT$std..io..default_write_fmt..Adapter$LT$T$GT$$u20$as$u20$core..fmt..Write$GT$9write_str17h71d1902b6517020cE', symObjAddr: 0x48CE0, symBinAddr: 0x100025570, symSize: 0xD8 }
  - { offset: 0x110FF, size: 0x8, addend: 0x0, symName: '__ZN81_$LT$std..io..default_write_fmt..Adapter$LT$T$GT$$u20$as$u20$core..fmt..Write$GT$9write_str17hc0cf7e42180d9cdcE', symObjAddr: 0x48EE0, symBinAddr: 0x100025648, symSize: 0x80 }
  - { offset: 0x1124A, size: 0x8, addend: 0x0, symName: '__ZN81_$LT$std..io..default_write_fmt..Adapter$LT$T$GT$$u20$as$u20$core..fmt..Write$GT$9write_str17hebf4ee0c4ffb615dE', symObjAddr: 0x48F60, symBinAddr: 0x1000256C8, symSize: 0xA0 }
  - { offset: 0x11454, size: 0x8, addend: 0x0, symName: __ZN3std4path4Path13_strip_prefix17h6a54778252633284E, symObjAddr: 0x1C220, symBinAddr: 0x100010058, symSize: 0x21C }
  - { offset: 0x11562, size: 0x8, addend: 0x0, symName: __ZN3std4path4Path5_join17ha8f408dfc5576c3eE, symObjAddr: 0x1CAF0, symBinAddr: 0x100010274, symSize: 0x184 }
  - { offset: 0x11AF7, size: 0x8, addend: 0x0, symName: __ZN3std4path10Components25parse_next_component_back17hdf417cd8d506b36cE, symObjAddr: 0x1B420, symBinAddr: 0x10000FCBC, symSize: 0x164 }
  - { offset: 0x11C3D, size: 0x8, addend: 0x0, symName: __ZN3std4path10Components7as_path17h6e58b97ab90cc3e2E, symObjAddr: 0x1B584, symBinAddr: 0x10000FE20, symSize: 0x238 }
  - { offset: 0x11E47, size: 0x8, addend: 0x0, symName: '__ZN61_$LT$std..path..Component$u20$as$u20$core..cmp..PartialEq$GT$2eq17hf0cb147584673330E', symObjAddr: 0x429C0, symBinAddr: 0x100024264, symSize: 0x134 }
  - { offset: 0x11F9B, size: 0x8, addend: 0x0, symName: '__ZN80_$LT$std..path..Components$u20$as$u20$core..iter..traits..iterator..Iterator$GT$4next17h2794890ed267533bE', symObjAddr: 0x48734, symBinAddr: 0x100025220, symSize: 0x300 }
  - { offset: 0x120A5, size: 0x8, addend: 0x0, symName: '__ZN95_$LT$std..path..Components$u20$as$u20$core..iter..traits..double_ended..DoubleEndedIterator$GT$9next_back17h5b30f64461d1ff12E', symObjAddr: 0x4AAF0, symBinAddr: 0x100025B24, symSize: 0x41C }
  - { offset: 0x12229, size: 0x8, addend: 0x0, symName: __ZN3std7process5abort17hdc01e45e25b715e8E, symObjAddr: 0x20BA4, symBinAddr: 0x1000365DC, symSize: 0xC }
  - { offset: 0x12258, size: 0x8, addend: 0x0, symName: '__ZN126_$LT$std..thread..thread..thread_name_string..ThreadNameString$u20$as$u20$core..convert..From$LT$alloc..string..String$GT$$GT$4from17ha64d14fb74fc8073E', symObjAddr: 0xB2C, symBinAddr: 0x100005618, symSize: 0x128 }
  - { offset: 0x1246B, size: 0x8, addend: 0x0, symName: __ZN3std6thread6thread6Thread3new17h356aa6fbdd76e3faE, symObjAddr: 0x1F470, symBinAddr: 0x1000109B0, symSize: 0x18C }
  - { offset: 0x12865, size: 0x8, addend: 0x0, symName: __ZN3std6thread9functions5sleep17h0eab1a8b5b3e9444E, symObjAddr: 0x20000, symBinAddr: 0x100010EA4, symSize: 0xB0 }
  - { offset: 0x12A12, size: 0x8, addend: 0x0, symName: '__ZN3std6thread7current17with_current_name28_$u7b$$u7b$closure$u7d$$u7d$17h7b122d12040cc88dE', symObjAddr: 0x1F84C, symBinAddr: 0x100010B3C, symSize: 0x368 }
  - { offset: 0x131B6, size: 0x8, addend: 0x0, symName: __ZN3std6thread7current12init_current17hcdc81205fba7079eE, symObjAddr: 0x1F710, symBinAddr: 0x1000364A0, symSize: 0x13C }
  - { offset: 0x134C1, size: 0x8, addend: 0x0, symName: __ZN3std6thread2id8ThreadId3new9exhausted17h16675e7d46b2497aE, symObjAddr: 0x1F304, symBinAddr: 0x100036480, symSize: 0x20 }
  - { offset: 0x13524, size: 0x8, addend: 0x0, symName: __ZN3std12backtrace_rs5print17BacktraceFrameFmt21print_raw_with_column17hca68b0fba334b35fE, symObjAddr: 0xCD4, symBinAddr: 0x100005768, symSize: 0x378 }
  - { offset: 0x1373A, size: 0x8, addend: 0x0, symName: __ZN3std12backtrace_rs9backtrace9libunwind5trace8trace_fn17ha7419652fba8bbb9E, symObjAddr: 0x104C, symBinAddr: 0x100005AE0, symSize: 0x48 }
  - { offset: 0x137ED, size: 0x8, addend: 0x0, symName: __ZN3std12backtrace_rs9symbolize5gimli4mmap17he272169bddfd4b7fE, symObjAddr: 0x1094, symBinAddr: 0x100005B28, symSize: 0x1EC }
  - { offset: 0x13CF6, size: 0x8, addend: 0x0, symName: __ZN3std12backtrace_rs9symbolize5gimli5macho11find_header17hd33c1118ff21db4fE, symObjAddr: 0x1280, symBinAddr: 0x100005D14, symSize: 0x1D4 }
  - { offset: 0x13D13, size: 0x8, addend: 0x0, symName: __ZN3std12backtrace_rs9symbolize5gimli5macho11find_header17hd33c1118ff21db4fE, symObjAddr: 0x1280, symBinAddr: 0x100005D14, symSize: 0x1D4 }
  - { offset: 0x13D27, size: 0x8, addend: 0x0, symName: __ZN3std12backtrace_rs9symbolize5gimli5macho11find_header17hd33c1118ff21db4fE, symObjAddr: 0x1280, symBinAddr: 0x100005D14, symSize: 0x1D4 }
  - { offset: 0x13D3B, size: 0x8, addend: 0x0, symName: __ZN3std12backtrace_rs9symbolize5gimli5macho11find_header17hd33c1118ff21db4fE, symObjAddr: 0x1280, symBinAddr: 0x100005D14, symSize: 0x1D4 }
  - { offset: 0x13D4F, size: 0x8, addend: 0x0, symName: __ZN3std12backtrace_rs9symbolize5gimli5macho11find_header17hd33c1118ff21db4fE, symObjAddr: 0x1280, symBinAddr: 0x100005D14, symSize: 0x1D4 }
  - { offset: 0x13D64, size: 0x8, addend: 0x0, symName: __ZN3std12backtrace_rs9symbolize5gimli5macho11find_header17hd33c1118ff21db4fE, symObjAddr: 0x1280, symBinAddr: 0x100005D14, symSize: 0x1D4 }
  - { offset: 0x13D79, size: 0x8, addend: 0x0, symName: __ZN3std12backtrace_rs9symbolize5gimli5macho11find_header17hd33c1118ff21db4fE, symObjAddr: 0x1280, symBinAddr: 0x100005D14, symSize: 0x1D4 }
  - { offset: 0x1445F, size: 0x8, addend: 0x0, symName: __ZN3std12backtrace_rs9symbolize5gimli5macho6Object5parse17hf506a1efd7ff54a3E, symObjAddr: 0x1454, symBinAddr: 0x100005EE8, symSize: 0xC9C }
  - { offset: 0x16100, size: 0x8, addend: 0x0, symName: __ZN3std12backtrace_rs9symbolize5gimli5macho6Object7section17he17befe272a4dbdbE, symObjAddr: 0x20F0, symBinAddr: 0x100006B84, symSize: 0x154 }
  - { offset: 0x164E2, size: 0x8, addend: 0x0, symName: __ZN3std12backtrace_rs9symbolize5gimli7Context11find_frames17hfcdc81a34a68b91aE, symObjAddr: 0x2244, symBinAddr: 0x100006CD8, symSize: 0x394 }
  - { offset: 0x16912, size: 0x8, addend: 0x0, symName: __ZN3std12backtrace_rs9symbolize5gimli7Context3new17h1ea182b05b6e0992E, symObjAddr: 0x25D8, symBinAddr: 0x10000706C, symSize: 0x1F0C }
  - { offset: 0x1AB26, size: 0x8, addend: 0x0, symName: __ZN3std12backtrace_rs9symbolize5gimli7resolve17h009ffb5bcff28cb7E, symObjAddr: 0x44E4, symBinAddr: 0x100008F78, symSize: 0x2580 }
  - { offset: 0x20094, size: 0x8, addend: 0x0, symName: __ZN3std12backtrace_rs9symbolize6Symbol4name17h1d15ebfcd11b71feE, symObjAddr: 0x6A9C, symBinAddr: 0x10000B4F8, symSize: 0xD4 }
  - { offset: 0x201FA, size: 0x8, addend: 0x0, symName: '__ZN79_$LT$std..backtrace_rs..symbolize..SymbolName$u20$as$u20$core..fmt..Display$GT$3fmt17hf60cd64a13bb79e7E', symObjAddr: 0x47F2C, symBinAddr: 0x10002511C, symSize: 0x104 }
  - { offset: 0x20339, size: 0x8, addend: 0x0, symName: '__ZN75_$LT$std..fs..ReadDir$u20$as$u20$core..iter..traits..iterator..Iterator$GT$4next17ha39b25c774f1f642E', symObjAddr: 0x46918, symBinAddr: 0x100024F90, symSize: 0x18C }
  - { offset: 0x20766, size: 0x8, addend: 0x0, symName: '__ZN64_$LT$std..ffi..os_str..Display$u20$as$u20$core..fmt..Display$GT$3fmt17h9b276ae677c3f105E', symObjAddr: 0x442B8, symBinAddr: 0x10002440C, symSize: 0xAC }
  - { offset: 0x207E8, size: 0x8, addend: 0x0, symName: '__ZN3std4sync6poison5mutex14Mutex$LT$T$GT$4lock17hf0cb97a4e3e2c200E', symObjAddr: 0x1E5B8, symBinAddr: 0x1000106E8, symSize: 0x78 }
  - { offset: 0x20A82, size: 0x8, addend: 0x0, symName: '__ZN3std4sync4once4Once15call_once_force28_$u7b$$u7b$closure$u7d$$u7d$17h2fdb561340f34c0eE', symObjAddr: 0x1E0AC, symBinAddr: 0x1000103F8, symSize: 0x60 }
  - { offset: 0x20B37, size: 0x8, addend: 0x0, symName: '__ZN3std4sync4once4Once15call_once_force28_$u7b$$u7b$closure$u7d$$u7d$17hcfa528ccdebc80e3E', symObjAddr: 0x1E30C, symBinAddr: 0x100010458, symSize: 0x70 }
  - { offset: 0x20C90, size: 0x8, addend: 0x0, symName: '__ZN3std4sync4once4Once9call_once28_$u7b$$u7b$closure$u7d$$u7d$17h1f2352026438e1d9E', symObjAddr: 0x1E398, symBinAddr: 0x1000104C8, symSize: 0x220 }
  - { offset: 0x21403, size: 0x8, addend: 0x0, symName: '__ZN3std4sync9once_lock17OnceLock$LT$T$GT$10initialize17h691ffef4b28b675eE', symObjAddr: 0x1EC3C, symBinAddr: 0x100036370, symSize: 0x60 }
  - { offset: 0x2142E, size: 0x8, addend: 0x0, symName: '__ZN3std4sync9once_lock17OnceLock$LT$T$GT$10initialize17h691ffef4b28b675eE', symObjAddr: 0x1EC3C, symBinAddr: 0x100036370, symSize: 0x60 }
  - { offset: 0x21442, size: 0x8, addend: 0x0, symName: '__ZN3std4sync9once_lock17OnceLock$LT$T$GT$10initialize17h691ffef4b28b675eE', symObjAddr: 0x1EC3C, symBinAddr: 0x100036370, symSize: 0x60 }
  - { offset: 0x21456, size: 0x8, addend: 0x0, symName: '__ZN3std4sync9once_lock17OnceLock$LT$T$GT$10initialize17h691ffef4b28b675eE', symObjAddr: 0x1EC3C, symBinAddr: 0x100036370, symSize: 0x60 }
  - { offset: 0x2146B, size: 0x8, addend: 0x0, symName: '__ZN3std4sync9once_lock17OnceLock$LT$T$GT$10initialize17hb5b9ce14a4b35ddcE', symObjAddr: 0x1EC9C, symBinAddr: 0x1000363D0, symSize: 0x64 }
  - { offset: 0x21496, size: 0x8, addend: 0x0, symName: '__ZN3std4sync9once_lock17OnceLock$LT$T$GT$10initialize17hb5b9ce14a4b35ddcE', symObjAddr: 0x1EC9C, symBinAddr: 0x1000363D0, symSize: 0x64 }
  - { offset: 0x214AA, size: 0x8, addend: 0x0, symName: '__ZN3std4sync9once_lock17OnceLock$LT$T$GT$10initialize17hb5b9ce14a4b35ddcE', symObjAddr: 0x1EC9C, symBinAddr: 0x1000363D0, symSize: 0x64 }
  - { offset: 0x214BE, size: 0x8, addend: 0x0, symName: '__ZN3std4sync9once_lock17OnceLock$LT$T$GT$10initialize17hb5b9ce14a4b35ddcE', symObjAddr: 0x1EC9C, symBinAddr: 0x1000363D0, symSize: 0x64 }
  - { offset: 0x2163B, size: 0x8, addend: 0x0, symName: __ZN3std5panic19get_backtrace_style17hf1e68ecb2afa3e09E, symObjAddr: 0x1F194, symBinAddr: 0x100010894, symSize: 0x11C }
  - { offset: 0x21659, size: 0x8, addend: 0x0, symName: __ZN3std5panic19get_backtrace_style17hf1e68ecb2afa3e09E, symObjAddr: 0x1F194, symBinAddr: 0x100010894, symSize: 0x11C }
  - { offset: 0x2166E, size: 0x8, addend: 0x0, symName: __ZN3std5panic19get_backtrace_style17hf1e68ecb2afa3e09E, symObjAddr: 0x1F194, symBinAddr: 0x100010894, symSize: 0x11C }
  - { offset: 0x21ACF, size: 0x8, addend: 0x0, symName: __ZN3std3env11current_dir17he7f55ba519818f7aE, symObjAddr: 0xC66C, symBinAddr: 0x10000CFCC, symSize: 0x18C }
  - { offset: 0x21E7D, size: 0x8, addend: 0x0, symName: __ZN3std3env7_var_os17h6bd9111edd9950c4E, symObjAddr: 0xC964, symBinAddr: 0x10000D158, symSize: 0x16C }
  - { offset: 0x23EEE, size: 0x8, addend: 0x0, symName: '__ZN4core3ptr107drop_in_place$LT$core..pin..Pin$LT$alloc..boxed..Box$LT$std..sys..pal..unix..sync..mutex..Mutex$GT$$GT$$GT$17hcdcee00700bbe8b4E', symObjAddr: 0x241D8, symBinAddr: 0x100011F6C, symSize: 0x2C }
  - { offset: 0x23F84, size: 0x8, addend: 0x0, symName: '__ZN4core3ptr109drop_in_place$LT$alloc..sync..Arc$LT$std..sync..poison..mutex..Mutex$LT$alloc..vec..Vec$LT$u8$GT$$GT$$GT$$GT$17h6b26ae08b8d0e28dE', symObjAddr: 0x24204, symBinAddr: 0x100011F98, symSize: 0x20 }
  - { offset: 0x23F9B, size: 0x8, addend: 0x0, symName: '__ZN4core3ptr109drop_in_place$LT$alloc..sync..Arc$LT$std..sync..poison..mutex..Mutex$LT$alloc..vec..Vec$LT$u8$GT$$GT$$GT$$GT$17h6b26ae08b8d0e28dE', symObjAddr: 0x24204, symBinAddr: 0x100011F98, symSize: 0x20 }
  - { offset: 0x23FB0, size: 0x8, addend: 0x0, symName: '__ZN4core3ptr109drop_in_place$LT$alloc..sync..Arc$LT$std..sync..poison..mutex..Mutex$LT$alloc..vec..Vec$LT$u8$GT$$GT$$GT$$GT$17h6b26ae08b8d0e28dE', symObjAddr: 0x24204, symBinAddr: 0x100011F98, symSize: 0x20 }
  - { offset: 0x23FC5, size: 0x8, addend: 0x0, symName: '__ZN4core3ptr109drop_in_place$LT$alloc..sync..Arc$LT$std..sync..poison..mutex..Mutex$LT$alloc..vec..Vec$LT$u8$GT$$GT$$GT$$GT$17h6b26ae08b8d0e28dE', symObjAddr: 0x24204, symBinAddr: 0x100011F98, symSize: 0x20 }
  - { offset: 0x24018, size: 0x8, addend: 0x0, symName: '__ZN4core3ptr119drop_in_place$LT$std..io..default_write_fmt..Adapter$LT$std..io..cursor..Cursor$LT$$RF$mut$u20$$u5b$u8$u5d$$GT$$GT$$GT$17h4dab32ab59ff2f01E', symObjAddr: 0x242A0, symBinAddr: 0x100011FB8, symSize: 0x10 }
  - { offset: 0x2402F, size: 0x8, addend: 0x0, symName: '__ZN4core3ptr119drop_in_place$LT$std..io..default_write_fmt..Adapter$LT$std..io..cursor..Cursor$LT$$RF$mut$u20$$u5b$u8$u5d$$GT$$GT$$GT$17h4dab32ab59ff2f01E', symObjAddr: 0x242A0, symBinAddr: 0x100011FB8, symSize: 0x10 }
  - { offset: 0x24041, size: 0x8, addend: 0x0, symName: '__ZN4core3ptr123drop_in_place$LT$addr2line..Context$LT$gimli..read..endian_slice..EndianSlice$LT$gimli..endianity..LittleEndian$GT$$GT$$GT$17h9fdaa4ce67b5ffb2E', symObjAddr: 0x242B0, symBinAddr: 0x100011FC8, symSize: 0x70 }
  - { offset: 0x24146, size: 0x8, addend: 0x0, symName: '__ZN4core3ptr129drop_in_place$LT$addr2line..unit..ResUnit$LT$gimli..read..endian_slice..EndianSlice$LT$gimli..endianity..LittleEndian$GT$$GT$$GT$17hcde32c30baa34bd7E', symObjAddr: 0x24468, symBinAddr: 0x100012038, symSize: 0xE4 }
  - { offset: 0x24363, size: 0x8, addend: 0x0, symName: '__ZN4core3ptr129drop_in_place$LT$addr2line..unit..SupUnit$LT$gimli..read..endian_slice..EndianSlice$LT$gimli..endianity..LittleEndian$GT$$GT$$GT$17ha449f8c4cf4803a5E', symObjAddr: 0x2454C, symBinAddr: 0x10001211C, symSize: 0x54 }
  - { offset: 0x24420, size: 0x8, addend: 0x0, symName: '__ZN4core3ptr130drop_in_place$LT$addr2line..unit..ResUnits$LT$gimli..read..endian_slice..EndianSlice$LT$gimli..endianity..LittleEndian$GT$$GT$$GT$17ha3ed9411901d1ec3E', symObjAddr: 0x245A0, symBinAddr: 0x100012170, symSize: 0xD0 }
  - { offset: 0x245C4, size: 0x8, addend: 0x0, symName: '__ZN4core3ptr130drop_in_place$LT$addr2line..unit..SupUnits$LT$gimli..read..endian_slice..EndianSlice$LT$gimli..endianity..LittleEndian$GT$$GT$$GT$17h77d10f001b1ca24cE', symObjAddr: 0x24670, symBinAddr: 0x100012240, symSize: 0xE4 }
  - { offset: 0x24773, size: 0x8, addend: 0x0, symName: '__ZN4core3ptr130drop_in_place$LT$gimli..read..dwarf..Dwarf$LT$gimli..read..endian_slice..EndianSlice$LT$gimli..endianity..LittleEndian$GT$$GT$$GT$17hd42ebb4664daca92E', symObjAddr: 0x24754, symBinAddr: 0x100012324, symSize: 0x58 }
  - { offset: 0x24808, size: 0x8, addend: 0x0, symName: '__ZN4core3ptr131drop_in_place$LT$$u5b$core..option..Option$LT$core..option..Option$LT$std..backtrace_rs..symbolize..gimli..Mapping$GT$$GT$$u5d$$GT$17h617d1488d1e2cf46E', symObjAddr: 0x247AC, symBinAddr: 0x10001237C, symSize: 0xCC }
  - { offset: 0x248B1, size: 0x8, addend: 0x0, symName: '__ZN4core3ptr137drop_in_place$LT$gimli..read..dwarf..Unit$LT$gimli..read..endian_slice..EndianSlice$LT$gimli..endianity..LittleEndian$GT$$C$usize$GT$$GT$17h295291503aabf2e2E', symObjAddr: 0x24878, symBinAddr: 0x100012448, symSize: 0x54 }
  - { offset: 0x249A6, size: 0x8, addend: 0x0, symName: '__ZN4core3ptr138drop_in_place$LT$addr2line..function..LazyFunction$LT$gimli..read..endian_slice..EndianSlice$LT$gimli..endianity..LittleEndian$GT$$GT$$GT$17h18c14c4f086b6082E', symObjAddr: 0x248CC, symBinAddr: 0x10001249C, symSize: 0x64 }
  - { offset: 0x249BD, size: 0x8, addend: 0x0, symName: '__ZN4core3ptr138drop_in_place$LT$addr2line..function..LazyFunction$LT$gimli..read..endian_slice..EndianSlice$LT$gimli..endianity..LittleEndian$GT$$GT$$GT$17h18c14c4f086b6082E', symObjAddr: 0x248CC, symBinAddr: 0x10001249C, symSize: 0x64 }
  - { offset: 0x249D2, size: 0x8, addend: 0x0, symName: '__ZN4core3ptr138drop_in_place$LT$addr2line..function..LazyFunction$LT$gimli..read..endian_slice..EndianSlice$LT$gimli..endianity..LittleEndian$GT$$GT$$GT$17h18c14c4f086b6082E', symObjAddr: 0x248CC, symBinAddr: 0x10001249C, symSize: 0x64 }
  - { offset: 0x249E7, size: 0x8, addend: 0x0, symName: '__ZN4core3ptr138drop_in_place$LT$addr2line..function..LazyFunction$LT$gimli..read..endian_slice..EndianSlice$LT$gimli..endianity..LittleEndian$GT$$GT$$GT$17h18c14c4f086b6082E', symObjAddr: 0x248CC, symBinAddr: 0x10001249C, symSize: 0x64 }
  - { offset: 0x24B1A, size: 0x8, addend: 0x0, symName: '__ZN4core3ptr144drop_in_place$LT$alloc..vec..Vec$LT$core..option..Option$LT$core..option..Option$LT$std..backtrace_rs..symbolize..gimli..Mapping$GT$$GT$$GT$$GT$17h60d3588af6258906E', symObjAddr: 0x24930, symBinAddr: 0x100012500, symSize: 0x78 }
  - { offset: 0x24C73, size: 0x8, addend: 0x0, symName: '__ZN4core3ptr152drop_in_place$LT$alloc..vec..Vec$LT$addr2line..unit..ResUnit$LT$gimli..read..endian_slice..EndianSlice$LT$gimli..endianity..LittleEndian$GT$$GT$$GT$$GT$17he2f872fcd89771f1E', symObjAddr: 0x24A64, symBinAddr: 0x100012578, symSize: 0xC4 }
  - { offset: 0x24DDF, size: 0x8, addend: 0x0, symName: '__ZN4core3ptr152drop_in_place$LT$alloc..vec..Vec$LT$addr2line..unit..SupUnit$LT$gimli..read..endian_slice..EndianSlice$LT$gimli..endianity..LittleEndian$GT$$GT$$GT$$GT$17h6e44fc5b6f04284cE', symObjAddr: 0x24B28, symBinAddr: 0x10001263C, symSize: 0xF4 }
  - { offset: 0x24FF5, size: 0x8, addend: 0x0, symName: '__ZN4core3ptr152drop_in_place$LT$core..result..Result$LT$$RF$std..thread..thread..Thread$C$$LP$$RF$std..thread..thread..Thread$C$std..thread..thread..Thread$RP$$GT$$GT$17h4d2805482ff1c9f8E', symObjAddr: 0x24C1C, symBinAddr: 0x100012730, symSize: 0x28 }
  - { offset: 0x250E8, size: 0x8, addend: 0x0, symName: '__ZN4core3ptr154drop_in_place$LT$alloc..boxed..Box$LT$dyn$u20$core..ops..function..FnOnce$LT$$LP$$RP$$GT$$u2b$Output$u20$$u3d$$u20$$LP$$RP$$u2b$core..marker..Send$GT$$GT$17hf0f4fd0226432ff5E', symObjAddr: 0x24C44, symBinAddr: 0x100012758, symSize: 0x78 }
  - { offset: 0x251DF, size: 0x8, addend: 0x0, symName: '__ZN4core3ptr156drop_in_place$LT$alloc..boxed..Box$LT$$u5b$core..option..Option$LT$core..option..Option$LT$std..backtrace_rs..symbolize..gimli..Mapping$GT$$GT$$u5d$$GT$$GT$17h83de759b361424e1E', symObjAddr: 0x24CBC, symBinAddr: 0x1000127D0, symSize: 0xF8 }
  - { offset: 0x25306, size: 0x8, addend: 0x0, symName: '__ZN4core3ptr159drop_in_place$LT$alloc..sync..ArcInner$LT$gimli..read..dwarf..Dwarf$LT$gimli..read..endian_slice..EndianSlice$LT$gimli..endianity..LittleEndian$GT$$GT$$GT$$GT$17h19aa16591fbb2a4bE', symObjAddr: 0x24E30, symBinAddr: 0x1000128C8, symSize: 0x5C }
  - { offset: 0x253C7, size: 0x8, addend: 0x0, symName: '__ZN4core3ptr161drop_in_place$LT$alloc..vec..Vec$LT$addr2line..function..LazyFunction$LT$gimli..read..endian_slice..EndianSlice$LT$gimli..endianity..LittleEndian$GT$$GT$$GT$$GT$17h2aa2164c5ca30afbE', symObjAddr: 0x24E8C, symBinAddr: 0x100012924, symSize: 0xAC }
  - { offset: 0x25602, size: 0x8, addend: 0x0, symName: '__ZN4core3ptr173drop_in_place$LT$alloc..boxed..Box$LT$$u5b$addr2line..function..LazyFunction$LT$gimli..read..endian_slice..EndianSlice$LT$gimli..endianity..LittleEndian$GT$$GT$$u5d$$GT$$GT$17hc53f1051ea076b89E', symObjAddr: 0x24FE4, symBinAddr: 0x1000129D0, symSize: 0x9C }
  - { offset: 0x25619, size: 0x8, addend: 0x0, symName: '__ZN4core3ptr173drop_in_place$LT$alloc..boxed..Box$LT$$u5b$addr2line..function..LazyFunction$LT$gimli..read..endian_slice..EndianSlice$LT$gimli..endianity..LittleEndian$GT$$GT$$u5d$$GT$$GT$17hc53f1051ea076b89E', symObjAddr: 0x24FE4, symBinAddr: 0x1000129D0, symSize: 0x9C }
  - { offset: 0x257ED, size: 0x8, addend: 0x0, symName: '__ZN4core3ptr181drop_in_place$LT$core..option..Option$LT$gimli..read..line..IncompleteLineProgram$LT$gimli..read..endian_slice..EndianSlice$LT$gimli..endianity..LittleEndian$GT$$C$usize$GT$$GT$$GT$17h826f74209a029f6dE', symObjAddr: 0x250F0, symBinAddr: 0x100012A6C, symSize: 0x98 }
  - { offset: 0x25A45, size: 0x8, addend: 0x0, symName: '__ZN4core3ptr181drop_in_place$LT$core..result..Result$LT$addr2line..frame..FrameIter$LT$gimli..read..endian_slice..EndianSlice$LT$gimli..endianity..LittleEndian$GT$$GT$$C$gimli..read..Error$GT$$GT$17hd7f0f94ce7b15d64E', symObjAddr: 0x25188, symBinAddr: 0x100012B04, symSize: 0x34 }
  - { offset: 0x25B7F, size: 0x8, addend: 0x0, symName: '__ZN4core3ptr184drop_in_place$LT$core..result..Result$LT$addr2line..function..Functions$LT$gimli..read..endian_slice..EndianSlice$LT$gimli..endianity..LittleEndian$GT$$GT$$C$gimli..read..Error$GT$$GT$17h296814b70b5346faE', symObjAddr: 0x251BC, symBinAddr: 0x100012B38, symSize: 0xD8 }
  - { offset: 0x25E0E, size: 0x8, addend: 0x0, symName: '__ZN4core3ptr194drop_in_place$LT$core..result..Result$LT$std..sync..poison..mutex..MutexGuard$LT$$LP$$RP$$GT$$C$std..sync..poison..PoisonError$LT$std..sync..poison..mutex..MutexGuard$LT$$LP$$RP$$GT$$GT$$GT$$GT$17hb14b7c62f6934af3E', symObjAddr: 0x25308, symBinAddr: 0x100012C10, symSize: 0x4C }
  - { offset: 0x25E48, size: 0x8, addend: 0x0, symName: '__ZN4core3ptr231drop_in_place$LT$core..result..Result$LT$core..option..Option$LT$alloc..boxed..Box$LT$addr2line..unit..DwoUnit$LT$gimli..read..endian_slice..EndianSlice$LT$gimli..endianity..LittleEndian$GT$$GT$$GT$$GT$$C$gimli..read..Error$GT$$GT$17h433fbdb073f5a2b7E', symObjAddr: 0x25398, symBinAddr: 0x100012C5C, symSize: 0xD4 }
  - { offset: 0x26021, size: 0x8, addend: 0x0, symName: '__ZN4core3ptr238drop_in_place$LT$alloc..boxed..convert..$LT$impl$u20$core..convert..From$LT$alloc..string..String$GT$$u20$for$u20$alloc..boxed..Box$LT$dyn$u20$core..error..Error$u2b$core..marker..Sync$u2b$core..marker..Send$GT$$GT$..from..StringError$GT$17h580cc086aaf076b5E', symObjAddr: 0x2546C, symBinAddr: 0x100012D30, symSize: 0x18 }
  - { offset: 0x26038, size: 0x8, addend: 0x0, symName: '__ZN4core3ptr238drop_in_place$LT$alloc..boxed..convert..$LT$impl$u20$core..convert..From$LT$alloc..string..String$GT$$u20$for$u20$alloc..boxed..Box$LT$dyn$u20$core..error..Error$u2b$core..marker..Sync$u2b$core..marker..Send$GT$$GT$..from..StringError$GT$17h580cc086aaf076b5E', symObjAddr: 0x2546C, symBinAddr: 0x100012D30, symSize: 0x18 }
  - { offset: 0x2604D, size: 0x8, addend: 0x0, symName: '__ZN4core3ptr238drop_in_place$LT$alloc..boxed..convert..$LT$impl$u20$core..convert..From$LT$alloc..string..String$GT$$u20$for$u20$alloc..boxed..Box$LT$dyn$u20$core..error..Error$u2b$core..marker..Sync$u2b$core..marker..Send$GT$$GT$..from..StringError$GT$17h580cc086aaf076b5E', symObjAddr: 0x2546C, symBinAddr: 0x100012D30, symSize: 0x18 }
  - { offset: 0x260CB, size: 0x8, addend: 0x0, symName: '__ZN4core3ptr275drop_in_place$LT$gimli..read..line..LineRows$LT$gimli..read..endian_slice..EndianSlice$LT$gimli..endianity..LittleEndian$GT$$C$gimli..read..line..IncompleteLineProgram$LT$gimli..read..endian_slice..EndianSlice$LT$gimli..endianity..LittleEndian$GT$$C$usize$GT$$C$usize$GT$$GT$17h83f9ebb3aeea62afE', symObjAddr: 0x25484, symBinAddr: 0x100012D48, symSize: 0x8C }
  - { offset: 0x2633D, size: 0x8, addend: 0x0, symName: '__ZN4core3ptr280drop_in_place$LT$$LT$alloc..collections..btree..map..IntoIter$LT$K$C$V$C$A$GT$$u20$as$u20$core..ops..drop..Drop$GT$..drop..DropGuard$LT$u64$C$core..result..Result$LT$alloc..sync..Arc$LT$gimli..read..abbrev..Abbreviations$GT$$C$gimli..read..Error$GT$$C$alloc..alloc..Global$GT$$GT$17h63bc061c50375c15E', symObjAddr: 0x25510, symBinAddr: 0x100012DD4, symSize: 0x84 }
  - { offset: 0x264AB, size: 0x8, addend: 0x0, symName: '__ZN4core3ptr284drop_in_place$LT$core..result..Result$LT$$RF$core..result..Result$LT$addr2line..line..Lines$C$gimli..read..Error$GT$$C$$LP$$RF$core..result..Result$LT$addr2line..line..Lines$C$gimli..read..Error$GT$$C$core..result..Result$LT$addr2line..line..Lines$C$gimli..read..Error$GT$$RP$$GT$$GT$17h029038b2c8cfe25dE', symObjAddr: 0x25594, symBinAddr: 0x100012E58, symSize: 0x10 }
  - { offset: 0x264DB, size: 0x8, addend: 0x0, symName: '__ZN4core3ptr42drop_in_place$LT$alloc..string..String$GT$17hd888f812b0218076E', symObjAddr: 0x25738, symBinAddr: 0x100012E68, symSize: 0x18 }
  - { offset: 0x264F2, size: 0x8, addend: 0x0, symName: '__ZN4core3ptr42drop_in_place$LT$alloc..string..String$GT$17hd888f812b0218076E', symObjAddr: 0x25738, symBinAddr: 0x100012E68, symSize: 0x18 }
  - { offset: 0x2656F, size: 0x8, addend: 0x0, symName: '__ZN4core3ptr42drop_in_place$LT$std..io..error..Error$GT$17h1855fe50c1c57d9cE', symObjAddr: 0x25750, symBinAddr: 0x100012E80, symSize: 0xAC }
  - { offset: 0x26752, size: 0x8, addend: 0x0, symName: '__ZN4core3ptr44drop_in_place$LT$object..read..ObjectMap$GT$17ha616da8bbd65ca9bE', symObjAddr: 0x257FC, symBinAddr: 0x100012F2C, symSize: 0x58 }
  - { offset: 0x26880, size: 0x8, addend: 0x0, symName: '__ZN4core3ptr46drop_in_place$LT$alloc..vec..Vec$LT$u8$GT$$GT$17h68cc23d56d456bcdE', symObjAddr: 0x25914, symBinAddr: 0x100012F84, symSize: 0x18 }
  - { offset: 0x268FE, size: 0x8, addend: 0x0, symName: '__ZN4core3ptr46drop_in_place$LT$std..io..stdio..StdinLock$GT$17h9ee511298e2ee894E', symObjAddr: 0x2592C, symBinAddr: 0x100012F9C, symSize: 0x54 }
  - { offset: 0x26915, size: 0x8, addend: 0x0, symName: '__ZN4core3ptr46drop_in_place$LT$std..io..stdio..StdinLock$GT$17h9ee511298e2ee894E', symObjAddr: 0x2592C, symBinAddr: 0x100012F9C, symSize: 0x54 }
  - { offset: 0x2692A, size: 0x8, addend: 0x0, symName: '__ZN4core3ptr46drop_in_place$LT$std..io..stdio..StdinLock$GT$17h9ee511298e2ee894E', symObjAddr: 0x2592C, symBinAddr: 0x100012F9C, symSize: 0x54 }
  - { offset: 0x26A0A, size: 0x8, addend: 0x0, symName: '__ZN4core3ptr48drop_in_place$LT$alloc..ffi..c_str..NulError$GT$17he07ddd5b2ccc63b8E', symObjAddr: 0x25A64, symBinAddr: 0x100012FF0, symSize: 0x18 }
  - { offset: 0x26A21, size: 0x8, addend: 0x0, symName: '__ZN4core3ptr48drop_in_place$LT$alloc..ffi..c_str..NulError$GT$17he07ddd5b2ccc63b8E', symObjAddr: 0x25A64, symBinAddr: 0x100012FF0, symSize: 0x18 }
  - { offset: 0x26AAB, size: 0x8, addend: 0x0, symName: '__ZN4core3ptr557drop_in_place$LT$core..result..Result$LT$$RF$core..result..Result$LT$addr2line..function..Function$LT$gimli..read..endian_slice..EndianSlice$LT$gimli..endianity..LittleEndian$GT$$GT$$C$gimli..read..Error$GT$$C$$LP$$RF$core..result..Result$LT$addr2line..function..Function$LT$gimli..read..endian_slice..EndianSlice$LT$gimli..endianity..LittleEndian$GT$$GT$$C$gimli..read..Error$GT$$C$core..result..Result$LT$addr2line..function..Function$LT$gimli..read..endian_slice..EndianSlice$LT$gimli..endianity..LittleEndian$GT$$GT$$C$gimli..read..Error$GT$$RP$$GT$$GT$17h22c92c92584c372cE', symObjAddr: 0x25D48, symBinAddr: 0x100013008, symSize: 0x64 }
  - { offset: 0x26C89, size: 0x8, addend: 0x0, symName: '__ZN4core3ptr55drop_in_place$LT$gimli..read..abbrev..Abbreviations$GT$17h121ea134c35114e2E', symObjAddr: 0x25DAC, symBinAddr: 0x10001306C, symSize: 0x118 }
  - { offset: 0x26FE8, size: 0x8, addend: 0x0, symName: '__ZN4core3ptr560drop_in_place$LT$core..result..Result$LT$$RF$core..result..Result$LT$addr2line..function..Functions$LT$gimli..read..endian_slice..EndianSlice$LT$gimli..endianity..LittleEndian$GT$$GT$$C$gimli..read..Error$GT$$C$$LP$$RF$core..result..Result$LT$addr2line..function..Functions$LT$gimli..read..endian_slice..EndianSlice$LT$gimli..endianity..LittleEndian$GT$$GT$$C$gimli..read..Error$GT$$C$core..result..Result$LT$addr2line..function..Functions$LT$gimli..read..endian_slice..EndianSlice$LT$gimli..endianity..LittleEndian$GT$$GT$$C$gimli..read..Error$GT$$RP$$GT$$GT$17h4bb1354476b580beE', symObjAddr: 0x25F48, symBinAddr: 0x100013184, symSize: 0x10 }
  - { offset: 0x2703F, size: 0x8, addend: 0x0, symName: '__ZN4core3ptr60drop_in_place$LT$gimli..read..abbrev..AbbreviationsCache$GT$17h274c9abad2c82b75E', symObjAddr: 0x25F58, symBinAddr: 0x100013194, symSize: 0xCC }
  - { offset: 0x271E7, size: 0x8, addend: 0x0, symName: '__ZN4core3ptr64drop_in_place$LT$std..sys..pal..unix..sync..mutex..AttrGuard$GT$17h20d725a80b90d492E', symObjAddr: 0x26090, symBinAddr: 0x100013260, symSize: 0x44 }
  - { offset: 0x27222, size: 0x8, addend: 0x0, symName: '__ZN4core3ptr65drop_in_place$LT$alloc..vec..Vec$LT$alloc..string..String$GT$$GT$17hac2f56803c48dad9E', symObjAddr: 0x2614C, symBinAddr: 0x1000132A4, symSize: 0x80 }
  - { offset: 0x27392, size: 0x8, addend: 0x0, symName: '__ZN4core3ptr65drop_in_place$LT$std..backtrace_rs..symbolize..gimli..Context$GT$17hb6a7e8b32d01fe67E', symObjAddr: 0x261CC, symBinAddr: 0x100013324, symSize: 0xE8 }
  - { offset: 0x27623, size: 0x8, addend: 0x0, symName: '__ZN4core3ptr66drop_in_place$LT$std..backtrace_rs..backtrace..libunwind..Bomb$GT$17h09b419520806aff3E', symObjAddr: 0x262B8, symBinAddr: 0x10001340C, symSize: 0x28 }
  - { offset: 0x27658, size: 0x8, addend: 0x0, symName: '__ZN4core3ptr701drop_in_place$LT$core..result..Result$LT$$RF$core..result..Result$LT$core..option..Option$LT$alloc..boxed..Box$LT$addr2line..unit..DwoUnit$LT$gimli..read..endian_slice..EndianSlice$LT$gimli..endianity..LittleEndian$GT$$GT$$GT$$GT$$C$gimli..read..Error$GT$$C$$LP$$RF$core..result..Result$LT$core..option..Option$LT$alloc..boxed..Box$LT$addr2line..unit..DwoUnit$LT$gimli..read..endian_slice..EndianSlice$LT$gimli..endianity..LittleEndian$GT$$GT$$GT$$GT$$C$gimli..read..Error$GT$$C$core..result..Result$LT$core..option..Option$LT$alloc..boxed..Box$LT$addr2line..unit..DwoUnit$LT$gimli..read..endian_slice..EndianSlice$LT$gimli..endianity..LittleEndian$GT$$GT$$GT$$GT$$C$gimli..read..Error$GT$$RP$$GT$$GT$17h86f0c9b9cc30b73fE', symObjAddr: 0x262E0, symBinAddr: 0x100013434, symSize: 0x14 }
  - { offset: 0x276F0, size: 0x8, addend: 0x0, symName: '__ZN4core3ptr70drop_in_place$LT$std..backtrace_rs..symbolize..gimli..stash..Stash$GT$17h1e68cfdecc013778E', symObjAddr: 0x26374, symBinAddr: 0x100013448, symSize: 0xB8 }
  - { offset: 0x27993, size: 0x8, addend: 0x0, symName: '__ZN4core3ptr71drop_in_place$LT$std..backtrace_rs..symbolize..gimli..macho..Object$GT$17h16f25c1205b4b006E', symObjAddr: 0x2642C, symBinAddr: 0x100013500, symSize: 0xD8 }
  - { offset: 0x27C57, size: 0x8, addend: 0x0, symName: '__ZN4core3ptr71drop_in_place$LT$std..panicking..panic_handler..FormatStringPayload$GT$17hb2d75f1b6a4a0e61E', symObjAddr: 0x26504, symBinAddr: 0x1000135D8, symSize: 0x1C }
  - { offset: 0x27D12, size: 0x8, addend: 0x0, symName: '__ZN4core3ptr72drop_in_place$LT$core..option..Option$LT$object..read..ObjectMap$GT$$GT$17h3669427a15d5db8eE', symObjAddr: 0x26520, symBinAddr: 0x1000135F4, symSize: 0x64 }
  - { offset: 0x27E8A, size: 0x8, addend: 0x0, symName: '__ZN4core3ptr73drop_in_place$LT$alloc..vec..Vec$LT$addr2line..line..LineSequence$GT$$GT$17ha5d2e9115cb35e75E', symObjAddr: 0x26584, symBinAddr: 0x100013658, symSize: 0x84 }
  - { offset: 0x27FE1, size: 0x8, addend: 0x0, symName: '__ZN4core3ptr77drop_in_place$LT$alloc..boxed..Box$LT$$u5b$alloc..string..String$u5d$$GT$$GT$17h24024ef1beb8ddcfE', symObjAddr: 0x26640, symBinAddr: 0x1000136DC, symSize: 0x70 }
  - { offset: 0x27FF8, size: 0x8, addend: 0x0, symName: '__ZN4core3ptr77drop_in_place$LT$alloc..boxed..Box$LT$$u5b$alloc..string..String$u5d$$GT$$GT$17h24024ef1beb8ddcfE', symObjAddr: 0x26640, symBinAddr: 0x1000136DC, symSize: 0x70 }
  - { offset: 0x280F4, size: 0x8, addend: 0x0, symName: '__ZN4core3ptr79drop_in_place$LT$std..sync..poison..rwlock..RwLockReadGuard$LT$$LP$$RP$$GT$$GT$17h7fdb402a9126fa4dE', symObjAddr: 0x266E0, symBinAddr: 0x10001374C, symSize: 0x58 }
  - { offset: 0x2818D, size: 0x8, addend: 0x0, symName: '__ZN4core3ptr81drop_in_place$LT$core..result..Result$LT$$LP$$RP$$C$std..io..error..Error$GT$$GT$17h8ea71b20ee63e279E', symObjAddr: 0x267E4, symBinAddr: 0x1000137A4, symSize: 0x10 }
  - { offset: 0x281BA, size: 0x8, addend: 0x0, symName: '__ZN4core3ptr82drop_in_place$LT$alloc..sync..ArcInner$LT$std..sys..fs..unix..InnerReadDir$GT$$GT$17hdc09d14659c54561E', symObjAddr: 0x268C8, symBinAddr: 0x1000137B4, symSize: 0x60 }
  - { offset: 0x2835C, size: 0x8, addend: 0x0, symName: '__ZN4core3ptr90drop_in_place$LT$std..io..buffered..bufwriter..BufWriter$LT$W$GT$..flush_buf..BufGuard$GT$17h4078a70f8e1e9e9bE', symObjAddr: 0x269B0, symBinAddr: 0x100013814, symSize: 0x5C }
  - { offset: 0x284DE, size: 0x8, addend: 0x0, symName: '__ZN4core3ptr92drop_in_place$LT$core..result..Result$LT$addr2line..line..Lines$C$gimli..read..Error$GT$$GT$17h38b50255f608d2c2E', symObjAddr: 0x26A5C, symBinAddr: 0x100013870, symSize: 0xE4 }
  - { offset: 0x28722, size: 0x8, addend: 0x0, symName: '__ZN4core3ptr93drop_in_place$LT$core..option..Option$LT$std..backtrace_rs..symbolize..gimli..Mapping$GT$$GT$17h296ac5c1080ae57aE', symObjAddr: 0x26B40, symBinAddr: 0x100013954, symSize: 0x6C }
  - { offset: 0x287AF, size: 0x8, addend: 0x0, symName: '__ZN4core3ptr95drop_in_place$LT$std..io..buffered..linewriter..LineWriter$LT$std..io..stdio..StdoutRaw$GT$$GT$17h81f49e288fe1ab3fE', symObjAddr: 0x26BAC, symBinAddr: 0x1000139C0, symSize: 0xF8 }
  - { offset: 0x2AF89, size: 0x8, addend: 0x0, symName: __ZN4core5slice4sort8unstable7ipnsort17h0818d1061040e766E, symObjAddr: 0x305F4, symBinAddr: 0x10001A6B0, symSize: 0x1A8 }
  - { offset: 0x2B24E, size: 0x8, addend: 0x0, symName: __ZN4core5slice4sort8unstable7ipnsort17h19c62b59a725978dE, symObjAddr: 0x3079C, symBinAddr: 0x10001A858, symSize: 0xEC }
  - { offset: 0x2B3A1, size: 0x8, addend: 0x0, symName: __ZN4core5slice4sort8unstable8heapsort8heapsort17h71cf3a6d9aafb841E, symObjAddr: 0x30888, symBinAddr: 0x10001A944, symSize: 0x100 }
  - { offset: 0x2B593, size: 0x8, addend: 0x0, symName: __ZN4core5slice4sort8unstable8heapsort8heapsort17ha43d83b4df57c044E, symObjAddr: 0x30988, symBinAddr: 0x10001AA44, symSize: 0x160 }
  - { offset: 0x2B921, size: 0x8, addend: 0x0, symName: __ZN4core5slice4sort8unstable9quicksort9quicksort17h572db013ccdb4d77E, symObjAddr: 0x30AE8, symBinAddr: 0x10001ABA4, symSize: 0x500 }
  - { offset: 0x2C394, size: 0x8, addend: 0x0, symName: __ZN4core5slice4sort8unstable9quicksort9quicksort17h61b11693a15d9cc3E, symObjAddr: 0x30FE8, symBinAddr: 0x10001B0A4, symSize: 0x3D8 }
  - { offset: 0x2CB1C, size: 0x8, addend: 0x0, symName: __ZN4core5slice4sort6stable14driftsort_main17h046f95489a491b68E, symObjAddr: 0x2B2B4, symBinAddr: 0x100015370, symSize: 0x124 }
  - { offset: 0x2CE29, size: 0x8, addend: 0x0, symName: __ZN4core5slice4sort6stable14driftsort_main17h5a695e0c9a9af867E, symObjAddr: 0x2B3D8, symBinAddr: 0x100015494, symSize: 0x128 }
  - { offset: 0x2D089, size: 0x8, addend: 0x0, symName: __ZN4core5slice4sort6stable14driftsort_main17h7e1a3f80a8853d18E, symObjAddr: 0x2B500, symBinAddr: 0x1000155BC, symSize: 0x150 }
  - { offset: 0x2D3B6, size: 0x8, addend: 0x0, symName: __ZN4core5slice4sort6stable14driftsort_main17hb2d9da1781019d87E, symObjAddr: 0x2B650, symBinAddr: 0x10001570C, symSize: 0x150 }
  - { offset: 0x2D6E3, size: 0x8, addend: 0x0, symName: __ZN4core5slice4sort6stable14driftsort_main17hb3840a8e29532d98E, symObjAddr: 0x2B7A0, symBinAddr: 0x10001585C, symSize: 0x124 }
  - { offset: 0x2D9F0, size: 0x8, addend: 0x0, symName: __ZN4core5slice4sort6stable14driftsort_main17hc1644205d8b9f75bE, symObjAddr: 0x2B8C4, symBinAddr: 0x100015980, symSize: 0x124 }
  - { offset: 0x2DEEE, size: 0x8, addend: 0x0, symName: __ZN4core5slice4sort6stable5drift4sort17h2e78e43121980981E, symObjAddr: 0x2B9E8, symBinAddr: 0x100015AA4, symSize: 0x5EC }
  - { offset: 0x2E59A, size: 0x8, addend: 0x0, symName: __ZN4core5slice4sort6stable5drift4sort17h54aec5744cff0dc5E, symObjAddr: 0x2BFD4, symBinAddr: 0x100016090, symSize: 0x4D8 }
  - { offset: 0x2EB7A, size: 0x8, addend: 0x0, symName: __ZN4core5slice4sort6stable5drift4sort17h55668fa9157404bdE, symObjAddr: 0x2C4AC, symBinAddr: 0x100016568, symSize: 0x4F4 }
  - { offset: 0x2F1EC, size: 0x8, addend: 0x0, symName: __ZN4core5slice4sort6stable5drift4sort17hbaad8a7b8712e352E, symObjAddr: 0x2C9A0, symBinAddr: 0x100016A5C, symSize: 0x540 }
  - { offset: 0x2F873, size: 0x8, addend: 0x0, symName: __ZN4core5slice4sort6stable5drift4sort17hd7e197024e9ddc47E, symObjAddr: 0x2CEE0, symBinAddr: 0x100016F9C, symSize: 0x4F4 }
  - { offset: 0x2FEE5, size: 0x8, addend: 0x0, symName: __ZN4core5slice4sort6stable5drift4sort17he5e4346d1c1fba6aE, symObjAddr: 0x2D3D4, symBinAddr: 0x100017490, symSize: 0x538 }
  - { offset: 0x30746, size: 0x8, addend: 0x0, symName: __ZN4core5slice4sort6stable9quicksort9quicksort17h02b1573bc5a9c581E, symObjAddr: 0x2D90C, symBinAddr: 0x1000179C8, symSize: 0x7FC }
  - { offset: 0x312E6, size: 0x8, addend: 0x0, symName: __ZN4core5slice4sort6stable9quicksort9quicksort17h1a694c4312139070E, symObjAddr: 0x2E108, symBinAddr: 0x1000181C4, symSize: 0x730 }
  - { offset: 0x31A07, size: 0x8, addend: 0x0, symName: __ZN4core5slice4sort6stable9quicksort9quicksort17h4e36f06fc43db733E, symObjAddr: 0x2E838, symBinAddr: 0x1000188F4, symSize: 0x80C }
  - { offset: 0x32963, size: 0x8, addend: 0x0, symName: __ZN4core5slice4sort6stable9quicksort9quicksort17h58c6cb561a55387aE, symObjAddr: 0x2F044, symBinAddr: 0x100019100, symSize: 0x820 }
  - { offset: 0x33510, size: 0x8, addend: 0x0, symName: __ZN4core5slice4sort6stable9quicksort9quicksort17h770bfef31f947321E, symObjAddr: 0x2F864, symBinAddr: 0x100019920, symSize: 0x6CC }
  - { offset: 0x33FB2, size: 0x8, addend: 0x0, symName: __ZN4core5slice4sort6stable9quicksort9quicksort17hb8c99fcc29b80e86E, symObjAddr: 0x2FF30, symBinAddr: 0x100019FEC, symSize: 0x6C4 }
  - { offset: 0x34B0F, size: 0x8, addend: 0x0, symName: __ZN4core5slice4sort6shared9smallsort12sort4_stable17h24880dac33b85e43E, symObjAddr: 0x2A158, symBinAddr: 0x100014214, symSize: 0x180 }
  - { offset: 0x34EF7, size: 0x8, addend: 0x0, symName: __ZN4core5slice4sort6shared9smallsort12sort4_stable17h43c6d3d5eff72ab6E, symObjAddr: 0x2A2D8, symBinAddr: 0x100014394, symSize: 0x194 }
  - { offset: 0x350CE, size: 0x8, addend: 0x0, symName: __ZN4core5slice4sort6shared9smallsort12sort8_stable17hf311bc461e8b1dacE, symObjAddr: 0x2A46C, symBinAddr: 0x100014528, symSize: 0x2B8 }
  - { offset: 0x355A8, size: 0x8, addend: 0x0, symName: __ZN4core5slice4sort6shared9smallsort18small_sort_general17h2cea89fa6ff7fdf7E, symObjAddr: 0x2A724, symBinAddr: 0x1000147E0, symSize: 0x408 }
  - { offset: 0x35AF7, size: 0x8, addend: 0x0, symName: __ZN4core5slice4sort6shared9smallsort18small_sort_general17he99bfc212231d302E, symObjAddr: 0x2AB2C, symBinAddr: 0x100014BE8, symSize: 0x4A0 }
  - { offset: 0x361C8, size: 0x8, addend: 0x0, symName: __ZN4core5slice4sort6shared9smallsort25insertion_sort_shift_left17h09cf33bc0528fc85E, symObjAddr: 0x2AFCC, symBinAddr: 0x100015088, symSize: 0xA8 }
  - { offset: 0x3629B, size: 0x8, addend: 0x0, symName: __ZN4core5slice4sort6shared9smallsort25insertion_sort_shift_left17h81cfbaee86c3aabaE, symObjAddr: 0x2B074, symBinAddr: 0x100015130, symSize: 0xB8 }
  - { offset: 0x363C4, size: 0x8, addend: 0x0, symName: __ZN4core5slice4sort6shared9smallsort25insertion_sort_shift_left17ha6c2026cf9a8637cE, symObjAddr: 0x2B12C, symBinAddr: 0x1000151E8, symSize: 0x94 }
  - { offset: 0x3648A, size: 0x8, addend: 0x0, symName: __ZN4core5slice4sort6shared9smallsort25insertion_sort_shift_left17hfa538f89a43629d3E, symObjAddr: 0x2B1C0, symBinAddr: 0x10001527C, symSize: 0xF4 }
  - { offset: 0x3681B, size: 0x8, addend: 0x0, symName: __ZN4core5slice4sort6shared5pivot11median3_rec17h08fd8d14ff0a24feE, symObjAddr: 0x29A34, symBinAddr: 0x100013AF0, symSize: 0xD0 }
  - { offset: 0x3691D, size: 0x8, addend: 0x0, symName: __ZN4core5slice4sort6shared5pivot11median3_rec17h6231be4f2651acd8E, symObjAddr: 0x29B04, symBinAddr: 0x100013BC0, symSize: 0xCC }
  - { offset: 0x36A1D, size: 0x8, addend: 0x0, symName: __ZN4core5slice4sort6shared5pivot11median3_rec17h643ae2da5f22a835E, symObjAddr: 0x29BD0, symBinAddr: 0x100013C8C, symSize: 0xCC }
  - { offset: 0x36B1D, size: 0x8, addend: 0x0, symName: __ZN4core5slice4sort6shared5pivot11median3_rec17h8df2b5a187f42f30E, symObjAddr: 0x29C9C, symBinAddr: 0x100013D58, symSize: 0xCC }
  - { offset: 0x36C49, size: 0x8, addend: 0x0, symName: __ZN4core5slice4sort6shared5pivot11median3_rec17h95b1dd6020e495adE, symObjAddr: 0x29D68, symBinAddr: 0x100013E24, symSize: 0x11C }
  - { offset: 0x36D4B, size: 0x8, addend: 0x0, symName: __ZN4core5slice4sort6shared5pivot11median3_rec17h9a90c9997a8958baE, symObjAddr: 0x29E84, symBinAddr: 0x100013F40, symSize: 0xD0 }
  - { offset: 0x36E4B, size: 0x8, addend: 0x0, symName: __ZN4core5slice4sort6shared5pivot11median3_rec17h9ca555dbe63454a0E, symObjAddr: 0x29F54, symBinAddr: 0x100014010, symSize: 0xD0 }
  - { offset: 0x36F4B, size: 0x8, addend: 0x0, symName: __ZN4core5slice4sort6shared5pivot11median3_rec17hd94ddf2e8bee2232E, symObjAddr: 0x2A024, symBinAddr: 0x1000140E0, symSize: 0x134 }
  - { offset: 0x37AF8, size: 0x8, addend: 0x0, symName: __ZN4core5panic12PanicPayload6as_str17h1d124740c1835d29E, symObjAddr: 0x29A2C, symBinAddr: 0x100013AE8, symSize: 0x8 }
  - { offset: 0x392F8, size: 0x8, addend: 0x0, symName: '__ZN42_$LT$$RF$T$u20$as$u20$core..fmt..Debug$GT$3fmt17h1cab94a097dcd607E', symObjAddr: 0x224E4, symBinAddr: 0x100011714, symSize: 0x1C }
  - { offset: 0x3933E, size: 0x8, addend: 0x0, symName: '__ZN42_$LT$$RF$T$u20$as$u20$core..fmt..Debug$GT$3fmt17h239e68b07176bc46E', symObjAddr: 0x22508, symBinAddr: 0x100011730, symSize: 0x1C }
  - { offset: 0x39384, size: 0x8, addend: 0x0, symName: '__ZN42_$LT$$RF$T$u20$as$u20$core..fmt..Debug$GT$3fmt17h56eea73de4421838E', symObjAddr: 0x2282C, symBinAddr: 0x10001174C, symSize: 0x10 }
  - { offset: 0x393C1, size: 0x8, addend: 0x0, symName: '__ZN42_$LT$$RF$T$u20$as$u20$core..fmt..Debug$GT$3fmt17haa6ca0ce7e6569daE', symObjAddr: 0x22BD8, symBinAddr: 0x10001175C, symSize: 0x10 }
  - { offset: 0x393D4, size: 0x8, addend: 0x0, symName: '__ZN42_$LT$$RF$T$u20$as$u20$core..fmt..Debug$GT$3fmt17had83cac9538e5196E', symObjAddr: 0x22BE8, symBinAddr: 0x10001176C, symSize: 0x74 }
  - { offset: 0x39528, size: 0x8, addend: 0x0, symName: '__ZN4core3fmt3num50_$LT$impl$u20$core..fmt..Debug$u20$for$u20$i32$GT$3fmt17h8e04838b8e7eb0aeE', symObjAddr: 0x23310, symBinAddr: 0x100011850, symSize: 0x18 }
  - { offset: 0x3953F, size: 0x8, addend: 0x0, symName: '__ZN4core3fmt3num50_$LT$impl$u20$core..fmt..Debug$u20$for$u20$i32$GT$3fmt17h8e04838b8e7eb0aeE', symObjAddr: 0x23310, symBinAddr: 0x100011850, symSize: 0x18 }
  - { offset: 0x39557, size: 0x8, addend: 0x0, symName: '__ZN4core3fmt3num52_$LT$impl$u20$core..fmt..Debug$u20$for$u20$usize$GT$3fmt17h0f2d15c1de89bdc6E', symObjAddr: 0x23370, symBinAddr: 0x100011868, symSize: 0x18 }
  - { offset: 0x3956E, size: 0x8, addend: 0x0, symName: '__ZN4core3fmt3num52_$LT$impl$u20$core..fmt..Debug$u20$for$u20$usize$GT$3fmt17h0f2d15c1de89bdc6E', symObjAddr: 0x23370, symBinAddr: 0x100011868, symSize: 0x18 }
  - { offset: 0x395A7, size: 0x8, addend: 0x0, symName: '__ZN44_$LT$$RF$T$u20$as$u20$core..fmt..Display$GT$3fmt17h160c802f3e41e8dbE', symObjAddr: 0x22F84, symBinAddr: 0x1000117E0, symSize: 0x60 }
  - { offset: 0x39619, size: 0x8, addend: 0x0, symName: '__ZN44_$LT$$RF$T$u20$as$u20$core..fmt..Display$GT$3fmt17h5b982d671f2c011bE', symObjAddr: 0x22FE4, symBinAddr: 0x100011840, symSize: 0x10 }
  - { offset: 0x39653, size: 0x8, addend: 0x0, symName: __ZN4core3fmt5Write10write_char17h3c4a258bf621e3c8E, symObjAddr: 0x234F0, symBinAddr: 0x100011880, symSize: 0x128 }
  - { offset: 0x396CC, size: 0x8, addend: 0x0, symName: __ZN4core3fmt5Write10write_char17h48a3d0478d99ff67E, symObjAddr: 0x23740, symBinAddr: 0x1000119A8, symSize: 0x138 }
  - { offset: 0x39854, size: 0x8, addend: 0x0, symName: __ZN4core3fmt5Write10write_char17h9c566887cb14daf2E, symObjAddr: 0x23878, symBinAddr: 0x100011AE0, symSize: 0x110 }
  - { offset: 0x39A07, size: 0x8, addend: 0x0, symName: __ZN4core3fmt5Write10write_char17haf0be188bfc5e5edE, symObjAddr: 0x23988, symBinAddr: 0x100011BF0, symSize: 0x168 }
  - { offset: 0x39B9D, size: 0x8, addend: 0x0, symName: __ZN4core3fmt5Write9write_fmt17h0e216721e767c51cE, symObjAddr: 0x23AF0, symBinAddr: 0x100011D58, symSize: 0x14 }
  - { offset: 0x39BCB, size: 0x8, addend: 0x0, symName: __ZN4core3fmt5Write9write_fmt17h1c3b3dc3c53b4302E, symObjAddr: 0x23B04, symBinAddr: 0x100011D6C, symSize: 0x14 }
  - { offset: 0x39BF9, size: 0x8, addend: 0x0, symName: __ZN4core3fmt5Write9write_fmt17h4ffd6749376e98d5E, symObjAddr: 0x23B2C, symBinAddr: 0x100011D80, symSize: 0x14 }
  - { offset: 0x39C27, size: 0x8, addend: 0x0, symName: __ZN4core3fmt5Write9write_fmt17h7e4f8c33a08085b9E, symObjAddr: 0x23B40, symBinAddr: 0x100011D94, symSize: 0x14 }
  - { offset: 0x39C55, size: 0x8, addend: 0x0, symName: __ZN4core3fmt5Write9write_fmt17h9f610cd215790b62E, symObjAddr: 0x23B54, symBinAddr: 0x100011DA8, symSize: 0x14 }
  - { offset: 0x39CAF, size: 0x8, addend: 0x0, symName: '__ZN50_$LT$$BP$mut$u20$T$u20$as$u20$core..fmt..Debug$GT$3fmt17hc186ff9e42e4e93bE', symObjAddr: 0x31470, symBinAddr: 0x10001B47C, symSize: 0x8 }
  - { offset: 0x39CCD, size: 0x8, addend: 0x0, symName: '__ZN50_$LT$$BP$mut$u20$T$u20$as$u20$core..fmt..Debug$GT$3fmt17hc186ff9e42e4e93bE', symObjAddr: 0x31470, symBinAddr: 0x10001B47C, symSize: 0x8 }
  - { offset: 0x39CFB, size: 0x8, addend: 0x0, symName: '__ZN52_$LT$$RF$mut$u20$T$u20$as$u20$core..fmt..Display$GT$3fmt17h1ec82cb1d895f4f2E', symObjAddr: 0x31A04, symBinAddr: 0x10001B484, symSize: 0x10 }
  - { offset: 0x39D9E, size: 0x8, addend: 0x0, symName: '__ZN4core3ops8function6FnOnce40call_once$u7b$$u7b$vtable.shim$u7d$$u7d$17h0693bd313d5ed723E', symObjAddr: 0x23E08, symBinAddr: 0x100011DBC, symSize: 0x4 }
  - { offset: 0x39DBB, size: 0x8, addend: 0x0, symName: '__ZN4core3ops8function6FnOnce40call_once$u7b$$u7b$vtable.shim$u7d$$u7d$17h0693bd313d5ed723E', symObjAddr: 0x23E08, symBinAddr: 0x100011DBC, symSize: 0x4 }
  - { offset: 0x39DD8, size: 0x8, addend: 0x0, symName: '__ZN4core3ops8function6FnOnce40call_once$u7b$$u7b$vtable.shim$u7d$$u7d$17h4c06ec8a484fb6d5E', symObjAddr: 0x23E0C, symBinAddr: 0x100011DC0, symSize: 0x28 }
  - { offset: 0x39E12, size: 0x8, addend: 0x0, symName: '__ZN4core3ops8function6FnOnce40call_once$u7b$$u7b$vtable.shim$u7d$$u7d$17h5677398c9b3c3b4bE', symObjAddr: 0x23EE4, symBinAddr: 0x100011DE8, symSize: 0xC }
  - { offset: 0x39E61, size: 0x8, addend: 0x0, symName: '__ZN4core3ops8function6FnOnce40call_once$u7b$$u7b$vtable.shim$u7d$$u7d$17h667c02823f96badfE', symObjAddr: 0x23EF0, symBinAddr: 0x100011DF4, symSize: 0x60 }
  - { offset: 0x39F42, size: 0x8, addend: 0x0, symName: '__ZN4core3ops8function6FnOnce40call_once$u7b$$u7b$vtable.shim$u7d$$u7d$17hbdea4484c8303e3cE', symObjAddr: 0x23F78, symBinAddr: 0x100011E54, symSize: 0xC }
  - { offset: 0x39F91, size: 0x8, addend: 0x0, symName: '__ZN4core3ops8function6FnOnce40call_once$u7b$$u7b$vtable.shim$u7d$$u7d$17hc381042ff4978e19E', symObjAddr: 0x23F8C, symBinAddr: 0x100011E60, symSize: 0x98 }
  - { offset: 0x3A0D5, size: 0x8, addend: 0x0, symName: '__ZN4core3ops8function6FnOnce40call_once$u7b$$u7b$vtable.shim$u7d$$u7d$17hd2a7141b7132aa60E', symObjAddr: 0x24090, symBinAddr: 0x100011EF8, symSize: 0x70 }
  - { offset: 0x3A23C, size: 0x8, addend: 0x0, symName: '__ZN4core3ops8function6FnOnce40call_once$u7b$$u7b$vtable.shim$u7d$$u7d$17he82d6796fa97a6beE', symObjAddr: 0x24118, symBinAddr: 0x100011F68, symSize: 0x4 }
  - { offset: 0x3A259, size: 0x8, addend: 0x0, symName: '__ZN4core3ops8function6FnOnce40call_once$u7b$$u7b$vtable.shim$u7d$$u7d$17he82d6796fa97a6beE', symObjAddr: 0x24118, symBinAddr: 0x100011F68, symSize: 0x4 }
  - { offset: 0x3AED0, size: 0x8, addend: 0x0, symName: '__ZN36_$LT$T$u20$as$u20$core..any..Any$GT$7type_id17h80469242c837387aE', symObjAddr: 0xCAC, symBinAddr: 0x100005740, symSize: 0x14 }
  - { offset: 0x3AEED, size: 0x8, addend: 0x0, symName: '__ZN36_$LT$T$u20$as$u20$core..any..Any$GT$7type_id17h80469242c837387aE', symObjAddr: 0xCAC, symBinAddr: 0x100005740, symSize: 0x14 }
  - { offset: 0x3AEFE, size: 0x8, addend: 0x0, symName: '__ZN36_$LT$T$u20$as$u20$core..any..Any$GT$7type_id17had88c6179bb9e7a9E', symObjAddr: 0xCC0, symBinAddr: 0x100005754, symSize: 0x14 }
  - { offset: 0x3AF1B, size: 0x8, addend: 0x0, symName: '__ZN36_$LT$T$u20$as$u20$core..any..Any$GT$7type_id17had88c6179bb9e7a9E', symObjAddr: 0xCC0, symBinAddr: 0x100005754, symSize: 0x14 }
  - { offset: 0x3C3FB, size: 0x8, addend: 0x0, symName: '__ZN4core4cell4once17OnceCell$LT$T$GT$8try_init17h11f4149069b96bd3E', symObjAddr: 0x26CA4, symBinAddr: 0x100036614, symSize: 0x68 }
  - { offset: 0x3C496, size: 0x8, addend: 0x0, symName: '__ZN4core4cell4once17OnceCell$LT$T$GT$8try_init17h518c6e6630824955E', symObjAddr: 0x26D0C, symBinAddr: 0x10003667C, symSize: 0x61C }
  - { offset: 0x3D00F, size: 0x8, addend: 0x0, symName: '__ZN4core4cell4once17OnceCell$LT$T$GT$8try_init17h987dba3036ece240E', symObjAddr: 0x27328, symBinAddr: 0x100036C98, symSize: 0x48 }
  - { offset: 0x3D02D, size: 0x8, addend: 0x0, symName: '__ZN4core4cell4once17OnceCell$LT$T$GT$8try_init17h987dba3036ece240E', symObjAddr: 0x27328, symBinAddr: 0x100036C98, symSize: 0x48 }
  - { offset: 0x3D042, size: 0x8, addend: 0x0, symName: '__ZN4core4cell4once17OnceCell$LT$T$GT$8try_init17h987dba3036ece240E', symObjAddr: 0x27328, symBinAddr: 0x100036C98, symSize: 0x48 }
  - { offset: 0x3D056, size: 0x8, addend: 0x0, symName: '__ZN4core4cell4once17OnceCell$LT$T$GT$8try_init17h987dba3036ece240E', symObjAddr: 0x27328, symBinAddr: 0x100036C98, symSize: 0x48 }
  - { offset: 0x3D095, size: 0x8, addend: 0x0, symName: '__ZN4core4cell4once17OnceCell$LT$T$GT$8try_init17hac0d35dd8f175de7E', symObjAddr: 0x27370, symBinAddr: 0x100036CE0, symSize: 0x1874 }
  - { offset: 0x4054C, size: 0x8, addend: 0x0, symName: '__ZN4core4cell4once17OnceCell$LT$T$GT$8try_init17hb47bd011acb6e436E', symObjAddr: 0x28BE4, symBinAddr: 0x100038554, symSize: 0xFC }
  - { offset: 0x407FD, size: 0x8, addend: 0x0, symName: '__ZN4core4cell4once17OnceCell$LT$T$GT$8try_init17hcdffa25142646f57E', symObjAddr: 0x28CE0, symBinAddr: 0x100038650, symSize: 0xBF0 }
  - { offset: 0x425F0, size: 0x8, addend: 0x0, symName: '__ZN55_$LT$$RF$str$u20$as$u20$core..str..pattern..Pattern$GT$15is_contained_in17had80eb3783a1c1c4E', symObjAddr: 0x31FF0, symBinAddr: 0x10001B494, symSize: 0x3C0 }
  - { offset: 0x42B6F, size: 0x8, addend: 0x0, symName: __ZN4core5error5Error11description17h26c045cd4b366515E, symObjAddr: 0x299DC, symBinAddr: 0x100013AB8, symSize: 0x10 }
  - { offset: 0x42B89, size: 0x8, addend: 0x0, symName: __ZN4core5error5Error5cause17h852dd4541d9ded04E, symObjAddr: 0x299EC, symBinAddr: 0x100013AC8, symSize: 0x8 }
  - { offset: 0x42BA3, size: 0x8, addend: 0x0, symName: __ZN4core5error5Error7provide17ha8d46d58e80ae7cfE, symObjAddr: 0x29A00, symBinAddr: 0x100013AD0, symSize: 0x4 }
  - { offset: 0x42BBD, size: 0x8, addend: 0x0, symName: __ZN4core5error5Error7type_id17h0237d7e5e1ecaf5bE, symObjAddr: 0x29A04, symBinAddr: 0x100013AD4, symSize: 0x14 }
  - { offset: 0x42BDB, size: 0x8, addend: 0x0, symName: __ZN4core5error5Error7type_id17h0237d7e5e1ecaf5bE, symObjAddr: 0x29A04, symBinAddr: 0x100013AD4, symSize: 0x14 }
  - { offset: 0x42BF5, size: 0x8, addend: 0x0, symName: __ZN4core9panicking13assert_failed17h79e72469a32bf64eE, symObjAddr: 0x313E8, symBinAddr: 0x100039240, symSize: 0x28 }
  - { offset: 0x42F3F, size: 0x8, addend: 0x0, symName: __ZN5alloc5alloc15exchange_malloc17h1b8af8c6814a7764E, symObjAddr: 0x38CCC, symBinAddr: 0x10001CD50, symSize: 0x48 }
  - { offset: 0x43E3D, size: 0x8, addend: 0x0, symName: '__ZN64_$LT$alloc..ffi..c_str..NulError$u20$as$u20$core..fmt..Debug$GT$3fmt17hf05551a4f3916cd6E', symObjAddr: 0x43CF4, symBinAddr: 0x1000243C0, symSize: 0x4C }
  - { offset: 0x441B3, size: 0x8, addend: 0x0, symName: '__ZN5alloc11collections5btree6remove259_$LT$impl$u20$alloc..collections..btree..node..Handle$LT$alloc..collections..btree..node..NodeRef$LT$alloc..collections..btree..node..marker..Mut$C$K$C$V$C$alloc..collections..btree..node..marker..Leaf$GT$$C$alloc..collections..btree..node..marker..KV$GT$$GT$14remove_leaf_kv17h899eedae6f25f4b4E', symObjAddr: 0x37F18, symBinAddr: 0x10001C53C, symSize: 0x4B0 }
  - { offset: 0x455B7, size: 0x8, addend: 0x0, symName: '__ZN5alloc11collections5btree4node29BalancingContext$LT$K$C$V$GT$15bulk_steal_left17he4a56beb3a059ee9E', symObjAddr: 0x36D9C, symBinAddr: 0x10001BE3C, symSize: 0x234 }
  - { offset: 0x45B03, size: 0x8, addend: 0x0, symName: '__ZN5alloc11collections5btree4node29BalancingContext$LT$K$C$V$GT$16bulk_steal_right17h7adf71e4fffc8cdfE', symObjAddr: 0x37298, symBinAddr: 0x10001C070, symSize: 0x26C }
  - { offset: 0x460ED, size: 0x8, addend: 0x0, symName: '__ZN5alloc11collections5btree4node29BalancingContext$LT$K$C$V$GT$25merge_tracking_child_edge17hc9462c85cb3cfb59E', symObjAddr: 0x377B0, symBinAddr: 0x10001C2DC, symSize: 0x260 }
  - { offset: 0x4699F, size: 0x8, addend: 0x0, symName: '__ZN5alloc11collections5btree3map25IntoIter$LT$K$C$V$C$A$GT$10dying_next17h454d59a3d6fd8e25E', symObjAddr: 0x36504, symBinAddr: 0x10001BA2C, symSize: 0x208 }
  - { offset: 0x46D53, size: 0x8, addend: 0x0, symName: '__ZN5alloc11collections5btree3map25IntoIter$LT$K$C$V$C$A$GT$10dying_next17h628cf69d104115caE', symObjAddr: 0x3670C, symBinAddr: 0x10001BC34, symSize: 0x208 }
  - { offset: 0x47788, size: 0x8, addend: 0x0, symName: '__ZN5alloc7raw_vec20RawVecInner$LT$A$GT$11finish_grow17hb7ba86db208d59a8E', symObjAddr: 0x3921C, symBinAddr: 0x100039708, symSize: 0xC4 }
  - { offset: 0x47914, size: 0x8, addend: 0x0, symName: '__ZN5alloc7raw_vec20RawVecInner$LT$A$GT$11finish_grow17hfa29b43b5418c4caE', symObjAddr: 0x392E0, symBinAddr: 0x1000397CC, symSize: 0x94 }
  - { offset: 0x47A4A, size: 0x8, addend: 0x0, symName: '__ZN5alloc7raw_vec20RawVecInner$LT$A$GT$14grow_amortized17hd9f56dcd9b9f9d14E', symObjAddr: 0x39374, symBinAddr: 0x100039860, symSize: 0x74 }
  - { offset: 0x4805B, size: 0x8, addend: 0x0, symName: '__ZN5alloc7raw_vec19RawVec$LT$T$C$A$GT$8grow_one17h04f561b8f2dea13fE', symObjAddr: 0x38D14, symBinAddr: 0x100039268, symSize: 0x68 }
  - { offset: 0x480DF, size: 0x8, addend: 0x0, symName: '__ZN5alloc7raw_vec19RawVec$LT$T$C$A$GT$8grow_one17h198960438fde08aeE', symObjAddr: 0x38D7C, symBinAddr: 0x1000392D0, symSize: 0x68 }
  - { offset: 0x48163, size: 0x8, addend: 0x0, symName: '__ZN5alloc7raw_vec19RawVec$LT$T$C$A$GT$8grow_one17h203b5633f2fa79beE', symObjAddr: 0x38E4C, symBinAddr: 0x100039338, symSize: 0x68 }
  - { offset: 0x481E7, size: 0x8, addend: 0x0, symName: '__ZN5alloc7raw_vec19RawVec$LT$T$C$A$GT$8grow_one17h3766b840d9afd937E', symObjAddr: 0x38EB4, symBinAddr: 0x1000393A0, symSize: 0x68 }
  - { offset: 0x4826B, size: 0x8, addend: 0x0, symName: '__ZN5alloc7raw_vec19RawVec$LT$T$C$A$GT$8grow_one17h3f8c6078a8991963E', symObjAddr: 0x38F1C, symBinAddr: 0x100039408, symSize: 0x68 }
  - { offset: 0x482EF, size: 0x8, addend: 0x0, symName: '__ZN5alloc7raw_vec19RawVec$LT$T$C$A$GT$8grow_one17h405ef6e2f71b866dE', symObjAddr: 0x38F84, symBinAddr: 0x100039470, symSize: 0x68 }
  - { offset: 0x48373, size: 0x8, addend: 0x0, symName: '__ZN5alloc7raw_vec19RawVec$LT$T$C$A$GT$8grow_one17h44ee0a6306d71035E', symObjAddr: 0x38FEC, symBinAddr: 0x1000394D8, symSize: 0x68 }
  - { offset: 0x483F7, size: 0x8, addend: 0x0, symName: '__ZN5alloc7raw_vec19RawVec$LT$T$C$A$GT$8grow_one17h6abcd35e37fb1abfE', symObjAddr: 0x39054, symBinAddr: 0x100039540, symSize: 0x68 }
  - { offset: 0x4847B, size: 0x8, addend: 0x0, symName: '__ZN5alloc7raw_vec19RawVec$LT$T$C$A$GT$8grow_one17h6e4d908bfa00e00aE', symObjAddr: 0x390BC, symBinAddr: 0x1000395A8, symSize: 0x28 }
  - { offset: 0x484A3, size: 0x8, addend: 0x0, symName: '__ZN5alloc7raw_vec19RawVec$LT$T$C$A$GT$8grow_one17h6f3c2dec70b6240bE', symObjAddr: 0x390E4, symBinAddr: 0x1000395D0, symSize: 0x68 }
  - { offset: 0x48527, size: 0x8, addend: 0x0, symName: '__ZN5alloc7raw_vec19RawVec$LT$T$C$A$GT$8grow_one17h79b50eb5a8f6cf6dE', symObjAddr: 0x3914C, symBinAddr: 0x100039638, symSize: 0x68 }
  - { offset: 0x485AB, size: 0x8, addend: 0x0, symName: '__ZN5alloc7raw_vec19RawVec$LT$T$C$A$GT$8grow_one17h83d6cca80d6c0224E', symObjAddr: 0x391B4, symBinAddr: 0x1000396A0, symSize: 0x68 }
  - { offset: 0x488BB, size: 0x8, addend: 0x0, symName: '__ZN5alloc7raw_vec20RawVecInner$LT$A$GT$7reserve21do_reserve_and_handle17h0fafcd2615a32a73E', symObjAddr: 0x393E8, symBinAddr: 0x1000398D4, symSize: 0x8C }
  - { offset: 0x48A91, size: 0x8, addend: 0x0, symName: '__ZN58_$LT$alloc..string..String$u20$as$u20$core..fmt..Debug$GT$3fmt17h78bb7a2e11f6e1baE', symObjAddr: 0x33334, symBinAddr: 0x10001B878, symSize: 0x10 }
  - { offset: 0x48B4B, size: 0x8, addend: 0x0, symName: '__ZN58_$LT$alloc..string..String$u20$as$u20$core..fmt..Write$GT$10write_char17hbd6e72c2c628145cE', symObjAddr: 0x33344, symBinAddr: 0x10001B888, symSize: 0x120 }
  - { offset: 0x48CEA, size: 0x8, addend: 0x0, symName: '__ZN58_$LT$alloc..string..String$u20$as$u20$core..fmt..Write$GT$9write_str17h1b27ec6ee313d329E', symObjAddr: 0x33464, symBinAddr: 0x10001B9A8, symSize: 0x80 }
  - { offset: 0x48E42, size: 0x8, addend: 0x0, symName: '__ZN60_$LT$alloc..string..String$u20$as$u20$core..fmt..Display$GT$3fmt17h73d3c6f60c34d661E', symObjAddr: 0x4031C, symBinAddr: 0x100023C40, symSize: 0x10 }
  - { offset: 0x4926C, size: 0x8, addend: 0x0, symName: '__ZN5alloc4sync16Arc$LT$T$C$A$GT$9drop_slow17h0037164df7590ac0E', symObjAddr: 0x388D0, symBinAddr: 0x10001C9EC, symSize: 0xD0 }
  - { offset: 0x49482, size: 0x8, addend: 0x0, symName: '__ZN5alloc4sync16Arc$LT$T$C$A$GT$9drop_slow17h52bc04ad50f5b4b2E', symObjAddr: 0x389A0, symBinAddr: 0x10001CABC, symSize: 0x70 }
  - { offset: 0x4964D, size: 0x8, addend: 0x0, symName: '__ZN5alloc4sync16Arc$LT$T$C$A$GT$9drop_slow17h78c4ac9972565606E', symObjAddr: 0x38A10, symBinAddr: 0x10001CB2C, symSize: 0xA0 }
  - { offset: 0x49945, size: 0x8, addend: 0x0, symName: '__ZN5alloc4sync16Arc$LT$T$C$A$GT$9drop_slow17hd9ef5dd0ff7c9060E', symObjAddr: 0x38B48, symBinAddr: 0x10001CBCC, symSize: 0x98 }
  - { offset: 0x49AE4, size: 0x8, addend: 0x0, symName: '__ZN5alloc4sync16Arc$LT$T$C$A$GT$9drop_slow17he45ed34c07342749E', symObjAddr: 0x38BE0, symBinAddr: 0x10001CC64, symSize: 0x2C }
  - { offset: 0x49BC0, size: 0x8, addend: 0x0, symName: '__ZN5alloc4sync16Arc$LT$T$C$A$GT$9drop_slow17heae24029bc4e532aE', symObjAddr: 0x38C0C, symBinAddr: 0x10001CC90, symSize: 0xC0 }
  - { offset: 0x4A64E, size: 0x8, addend: 0x0, symName: __ZN6object4read7archive13ArchiveMember12parse_aixbig17hd57f13479d9e18d8E, symObjAddr: 0x45710, symBinAddr: 0x100024880, symSize: 0x14C }
  - { offset: 0x4A8B9, size: 0x8, addend: 0x0, symName: __ZN6object4read7archive13ArchiveMember5parse17haf9380385e5fd538E, symObjAddr: 0x4585C, symBinAddr: 0x1000249CC, symSize: 0x2F4 }
  - { offset: 0x4AF91, size: 0x8, addend: 0x0, symName: __ZN6object4read7archive23parse_bsd_extended_name17hab3995e45e936604E, symObjAddr: 0x45B50, symBinAddr: 0x100024CC0, symSize: 0x2D0 }
  - { offset: 0x4B900, size: 0x8, addend: 0x0, symName: '__ZN6memchr6memchr6memchr28_$u7b$$u7b$closure$u7d$$u7d$17hba874a745790f837E', symObjAddr: 0x454B4, symBinAddr: 0x100024624, symSize: 0x25C }
  - { offset: 0x4C0B6, size: 0x8, addend: 0x0, symName: '__ZN9addr2line4unit16ResUnit$LT$R$GT$25find_function_or_location28_$u7b$$u7b$closure$u7d$$u7d$17h95329bfc6aca3f83E', symObjAddr: 0x4BE04, symBinAddr: 0x100026C30, symSize: 0x318 }
  - { offset: 0x4C439, size: 0x8, addend: 0x0, symName: '__ZN9addr2line4unit16ResUnit$LT$R$GT$25find_function_or_location17he9301a1381febfd7E', symObjAddr: 0x4BA98, symBinAddr: 0x1000268C4, symSize: 0x36C }
  - { offset: 0x4C929, size: 0x8, addend: 0x0, symName: '__ZN9addr2line16Context$LT$R$GT$9find_unit17h905f3e33a3f68a3fE', symObjAddr: 0x4B4CC, symBinAddr: 0x1000262F8, symSize: 0x15C }
  - { offset: 0x4CAA6, size: 0x8, addend: 0x0, symName: '__ZN9addr2line6lookup30LoopingLookup$LT$T$C$L$C$F$GT$10new_lookup17h8fef3daba4854196E', symObjAddr: 0x4C3DC, symBinAddr: 0x100027208, symSize: 0x430 }
  - { offset: 0x4D027, size: 0x8, addend: 0x0, symName: __ZN9addr2line4line11render_file17h4d488147130add67E, symObjAddr: 0x4B628, symBinAddr: 0x100026454, symSize: 0x470 }
  - { offset: 0x4D953, size: 0x8, addend: 0x0, symName: '__ZN9addr2line8function17Function$LT$R$GT$14parse_children17hdd2371ce61a370c8E', symObjAddr: 0x4CB78, symBinAddr: 0x1000279A4, symSize: 0xE28 }
  - { offset: 0x4F227, size: 0x8, addend: 0x0, symName: __ZN9addr2line8function10name_entry17h4369c610429b83efE, symObjAddr: 0x4C80C, symBinAddr: 0x100027638, symSize: 0x36C }
  - { offset: 0x4F713, size: 0x8, addend: 0x0, symName: __ZN9addr2line8function9name_attr17h8331fc42aefbf803E, symObjAddr: 0x4D9A0, symBinAddr: 0x1000287CC, symSize: 0x1C0 }
  - { offset: 0x4F8F7, size: 0x8, addend: 0x0, symName: '__ZN9addr2line5frame18FrameIter$LT$R$GT$4next17h479f0f38aa0e256bE', symObjAddr: 0x4C11C, symBinAddr: 0x100026F48, symSize: 0x2C0 }
  - { offset: 0x501D5, size: 0x8, addend: 0x0, symName: '__ZN5gimli4read5dwarf14Dwarf$LT$R$GT$11attr_string17h4730356adedd5219E', symObjAddr: 0x3E520, symBinAddr: 0x100021E44, symSize: 0x220 }
  - { offset: 0x5087B, size: 0x8, addend: 0x0, symName: '__ZN5gimli4read5dwarf13Unit$LT$R$GT$3new17h1ef95b211bccbc86E', symObjAddr: 0x3C8F0, symBinAddr: 0x100020214, symSize: 0x1C30 }
  - { offset: 0x53F01, size: 0x8, addend: 0x0, symName: '__ZN5gimli4read7aranges30ArangeHeader$LT$R$C$Offset$GT$5parse17h7c62961dd2dcdaa8E', symObjAddr: 0x3F3A0, symBinAddr: 0x100022CC4, symSize: 0x2A8 }
  - { offset: 0x548ED, size: 0x8, addend: 0x0, symName: '__ZN5gimli4read4unit18Attribute$LT$R$GT$5value17h793b06d9b903f3ecE', symObjAddr: 0x3B9A4, symBinAddr: 0x10001F2C8, symSize: 0x654 }
  - { offset: 0x54C3D, size: 0x8, addend: 0x0, symName: '__ZN90_$LT$gimli..read..unit..AttributeValue$LT$R$C$Offset$GT$$u20$as$u20$core..clone..Clone$GT$5clone17h94ac6e39aa84965eE', symObjAddr: 0x4A1F0, symBinAddr: 0x100025A5C, symSize: 0x68 }
  - { offset: 0x54C97, size: 0x8, addend: 0x0, symName: '__ZN5gimli4read4unit32AttributeValue$LT$R$C$Offset$GT$8u8_value17hc84e6745ded297adE', symObjAddr: 0x3C2B0, symBinAddr: 0x10001FBD4, symSize: 0x94 }
  - { offset: 0x54CCC, size: 0x8, addend: 0x0, symName: '__ZN5gimli4read4unit32AttributeValue$LT$R$C$Offset$GT$9u16_value17h4a8edc8fd4f5b647E', symObjAddr: 0x3C344, symBinAddr: 0x10001FC68, symSize: 0x94 }
  - { offset: 0x54D43, size: 0x8, addend: 0x0, symName: __ZN5gimli4read4unit15parse_attribute17h2d68c4420ede94e5E, symObjAddr: 0x3A5C4, symBinAddr: 0x10001DEE8, symSize: 0xF74 }
  - { offset: 0x575A5, size: 0x8, addend: 0x0, symName: __ZN5gimli4read4unit15skip_attributes17h1d26270d358521aaE, symObjAddr: 0x3B538, symBinAddr: 0x10001EE5C, symSize: 0x46C }
  - { offset: 0x57E68, size: 0x8, addend: 0x0, symName: '__ZN5gimli4read4unit22EntriesCursor$LT$R$GT$10next_entry17h5bdf587bcf26347fE', symObjAddr: 0x3BFF8, symBinAddr: 0x10001F91C, symSize: 0x2B8 }
  - { offset: 0x5841F, size: 0x8, addend: 0x0, symName: '__ZN5gimli4read4unit33DebugInfoUnitHeadersIter$LT$R$GT$4next17h553911b492efdc53E', symObjAddr: 0x3C3D8, symBinAddr: 0x10001FCFC, symSize: 0x518 }
  - { offset: 0x595FB, size: 0x8, addend: 0x0, symName: __ZN5gimli4read6reader6Reader11read_offset17h5092e782813967deE, symObjAddr: 0x3EEEC, symBinAddr: 0x100022810, symSize: 0xB4 }
  - { offset: 0x597EE, size: 0x8, addend: 0x0, symName: __ZN5gimli4read6reader6Reader12read_sleb12817h750a9ae63344d679E, symObjAddr: 0x3EFA0, symBinAddr: 0x1000228C4, symSize: 0x23C }
  - { offset: 0x598B8, size: 0x8, addend: 0x0, symName: __ZN5gimli4read6reader6Reader12read_uleb12817h89f1ca61d878365eE, symObjAddr: 0x3F1DC, symBinAddr: 0x100022B00, symSize: 0xB8 }
  - { offset: 0x59972, size: 0x8, addend: 0x0, symName: __ZN5gimli4read6reader6Reader17read_sized_offset17h4efceaf557d0fe8fE, symObjAddr: 0x3F294, symBinAddr: 0x100022BB8, symSize: 0x10C }
  - { offset: 0x59F90, size: 0x8, addend: 0x0, symName: '__ZN5gimli4read8rnglists20RngListIter$LT$R$GT$4next17h806e83767d13a002E', symObjAddr: 0x3F648, symBinAddr: 0x100022F6C, symSize: 0xCD4 }
  - { offset: 0x5C772, size: 0x8, addend: 0x0, symName: '__ZN5gimli4read5index18UnitIndex$LT$R$GT$5parse17hbeaf6304ca43b167E', symObjAddr: 0x3E740, symBinAddr: 0x100022064, symSize: 0x7AC }
  - { offset: 0x5CE0B, size: 0x8, addend: 0x0, symName: '__ZN5gimli4read4line27FileEntry$LT$R$C$Offset$GT$5parse17h38aa40376299856aE', symObjAddr: 0x3A3A8, symBinAddr: 0x10001DCCC, symSize: 0x21C }
  - { offset: 0x5D0C0, size: 0x8, addend: 0x0, symName: __ZN5gimli4read4line13parse_file_v517hd58e7b3e88eec819E, symObjAddr: 0x39474, symBinAddr: 0x10001CD98, symSize: 0x28C }
  - { offset: 0x5D24B, size: 0x8, addend: 0x0, symName: __ZN5gimli4read4line15FileEntryFormat5parse17h2e227a20b4c51827E, symObjAddr: 0x39700, symBinAddr: 0x10001D024, symSize: 0x350 }
  - { offset: 0x5D9F9, size: 0x8, addend: 0x0, symName: __ZN5gimli4read4line15parse_attribute17hd84a880deb0bba03E, symObjAddr: 0x39A50, symBinAddr: 0x10001D374, symSize: 0x874 }
  - { offset: 0x5EF71, size: 0x8, addend: 0x0, symName: __ZN5gimli4read4line18parse_directory_v517h803136f74a467f35E, symObjAddr: 0x3A2C4, symBinAddr: 0x10001DBE8, symSize: 0xE4 }
  - { offset: 0x5F03E, size: 0x8, addend: 0x0, symName: '__ZN85_$LT$gimli..read..line..FileEntry$LT$R$C$Offset$GT$$u20$as$u20$core..clone..Clone$GT$5clone17hc69e735d53f3f795E', symObjAddr: 0x49AF8, symBinAddr: 0x100025844, symSize: 0x1D4 }
  - { offset: 0x5F26F, size: 0x8, addend: 0x0, symName: _OUTLINED_FUNCTION_0, symObjAddr: 0x4DFE4, symBinAddr: 0x100028D04, symSize: 0xC }
  - { offset: 0x5F287, size: 0x8, addend: 0x0, symName: _OUTLINED_FUNCTION_1, symObjAddr: 0x4DFF0, symBinAddr: 0x100028D10, symSize: 0x8 }
  - { offset: 0x5F29F, size: 0x8, addend: 0x0, symName: _OUTLINED_FUNCTION_2, symObjAddr: 0x4DFF8, symBinAddr: 0x100028D18, symSize: 0xC }
  - { offset: 0x5F2B7, size: 0x8, addend: 0x0, symName: _OUTLINED_FUNCTION_3, symObjAddr: 0x4E004, symBinAddr: 0x100028D24, symSize: 0xC }
  - { offset: 0x5F2CF, size: 0x8, addend: 0x0, symName: _OUTLINED_FUNCTION_4, symObjAddr: 0x4E010, symBinAddr: 0x100028D30, symSize: 0xC }
  - { offset: 0x5F2E7, size: 0x8, addend: 0x0, symName: _OUTLINED_FUNCTION_5, symObjAddr: 0x4E01C, symBinAddr: 0x100028D3C, symSize: 0xC }
  - { offset: 0x5F2FF, size: 0x8, addend: 0x0, symName: _OUTLINED_FUNCTION_6, symObjAddr: 0x4E028, symBinAddr: 0x100028D48, symSize: 0xC }
  - { offset: 0x5F317, size: 0x8, addend: 0x0, symName: _OUTLINED_FUNCTION_7, symObjAddr: 0x4E034, symBinAddr: 0x100028D54, symSize: 0xC }
  - { offset: 0x5F32F, size: 0x8, addend: 0x0, symName: _OUTLINED_FUNCTION_8, symObjAddr: 0x4E040, symBinAddr: 0x100028D60, symSize: 0x10 }
  - { offset: 0x5F347, size: 0x8, addend: 0x0, symName: _OUTLINED_FUNCTION_9, symObjAddr: 0x4E050, symBinAddr: 0x100028D70, symSize: 0x10 }
  - { offset: 0x5F35F, size: 0x8, addend: 0x0, symName: _OUTLINED_FUNCTION_10, symObjAddr: 0x4E060, symBinAddr: 0x100028D80, symSize: 0x18 }
  - { offset: 0x5F377, size: 0x8, addend: 0x0, symName: _OUTLINED_FUNCTION_11, symObjAddr: 0x4E078, symBinAddr: 0x100028D98, symSize: 0x8 }
  - { offset: 0x5F38F, size: 0x8, addend: 0x0, symName: _OUTLINED_FUNCTION_12, symObjAddr: 0x4E080, symBinAddr: 0x100028DA0, symSize: 0x8 }
  - { offset: 0x5F3A7, size: 0x8, addend: 0x0, symName: _OUTLINED_FUNCTION_13, symObjAddr: 0x4E088, symBinAddr: 0x100028DA8, symSize: 0x24 }
  - { offset: 0x5F3BF, size: 0x8, addend: 0x0, symName: _OUTLINED_FUNCTION_14, symObjAddr: 0x4E0AC, symBinAddr: 0x100028DCC, symSize: 0x14 }
  - { offset: 0x5F3D7, size: 0x8, addend: 0x0, symName: _OUTLINED_FUNCTION_15, symObjAddr: 0x4E0C0, symBinAddr: 0x100028DE0, symSize: 0x8 }
  - { offset: 0x5F3EF, size: 0x8, addend: 0x0, symName: _OUTLINED_FUNCTION_16, symObjAddr: 0x4E0C8, symBinAddr: 0x100028DE8, symSize: 0x10 }
  - { offset: 0x5F407, size: 0x8, addend: 0x0, symName: _OUTLINED_FUNCTION_17, symObjAddr: 0x4E0D8, symBinAddr: 0x100028DF8, symSize: 0x10 }
  - { offset: 0x5F41F, size: 0x8, addend: 0x0, symName: _OUTLINED_FUNCTION_18, symObjAddr: 0x4E0E8, symBinAddr: 0x100028E08, symSize: 0x8 }
  - { offset: 0x5F437, size: 0x8, addend: 0x0, symName: _OUTLINED_FUNCTION_19, symObjAddr: 0x4E0F0, symBinAddr: 0x100028E10, symSize: 0x8 }
  - { offset: 0x5F44F, size: 0x8, addend: 0x0, symName: _OUTLINED_FUNCTION_20, symObjAddr: 0x4E0F8, symBinAddr: 0x100028E18, symSize: 0xC }
  - { offset: 0x5F467, size: 0x8, addend: 0x0, symName: _OUTLINED_FUNCTION_21, symObjAddr: 0x4E104, symBinAddr: 0x100028E24, symSize: 0x8 }
  - { offset: 0x5F47F, size: 0x8, addend: 0x0, symName: _OUTLINED_FUNCTION_22, symObjAddr: 0x4E10C, symBinAddr: 0x100028E2C, symSize: 0x10 }
  - { offset: 0x5F497, size: 0x8, addend: 0x0, symName: _OUTLINED_FUNCTION_23, symObjAddr: 0x4E11C, symBinAddr: 0x100028E3C, symSize: 0x18 }
  - { offset: 0x5F4AF, size: 0x8, addend: 0x0, symName: _OUTLINED_FUNCTION_24, symObjAddr: 0x4E134, symBinAddr: 0x100028E54, symSize: 0x8 }
  - { offset: 0x5F4C7, size: 0x8, addend: 0x0, symName: _OUTLINED_FUNCTION_25, symObjAddr: 0x4E13C, symBinAddr: 0x100028E5C, symSize: 0x8 }
  - { offset: 0x5F4DF, size: 0x8, addend: 0x0, symName: _OUTLINED_FUNCTION_26, symObjAddr: 0x4E144, symBinAddr: 0x100028E64, symSize: 0xC }
  - { offset: 0x5F4F7, size: 0x8, addend: 0x0, symName: _OUTLINED_FUNCTION_27, symObjAddr: 0x4E150, symBinAddr: 0x100028E70, symSize: 0x8 }
  - { offset: 0x5F50F, size: 0x8, addend: 0x0, symName: _OUTLINED_FUNCTION_28, symObjAddr: 0x4E158, symBinAddr: 0x100028E78, symSize: 0xC }
  - { offset: 0x5F527, size: 0x8, addend: 0x0, symName: _OUTLINED_FUNCTION_29, symObjAddr: 0x4E164, symBinAddr: 0x100028E84, symSize: 0x8 }
  - { offset: 0x5F53F, size: 0x8, addend: 0x0, symName: _OUTLINED_FUNCTION_30, symObjAddr: 0x4E16C, symBinAddr: 0x100028E8C, symSize: 0xC }
  - { offset: 0x5F557, size: 0x8, addend: 0x0, symName: _OUTLINED_FUNCTION_31, symObjAddr: 0x4E178, symBinAddr: 0x100028E98, symSize: 0x8 }
  - { offset: 0x5F56F, size: 0x8, addend: 0x0, symName: _OUTLINED_FUNCTION_32, symObjAddr: 0x4E180, symBinAddr: 0x100028EA0, symSize: 0xC }
  - { offset: 0x5F587, size: 0x8, addend: 0x0, symName: _OUTLINED_FUNCTION_33, symObjAddr: 0x4E18C, symBinAddr: 0x100028EAC, symSize: 0xC }
  - { offset: 0x5F59F, size: 0x8, addend: 0x0, symName: _OUTLINED_FUNCTION_34, symObjAddr: 0x4E198, symBinAddr: 0x100028EB8, symSize: 0x8 }
  - { offset: 0x5F5B7, size: 0x8, addend: 0x0, symName: _OUTLINED_FUNCTION_35, symObjAddr: 0x4E1A0, symBinAddr: 0x100028EC0, symSize: 0xC }
  - { offset: 0x5F5CF, size: 0x8, addend: 0x0, symName: _OUTLINED_FUNCTION_36, symObjAddr: 0x4E1AC, symBinAddr: 0x100028ECC, symSize: 0x10 }
  - { offset: 0x5F5E7, size: 0x8, addend: 0x0, symName: _OUTLINED_FUNCTION_37, symObjAddr: 0x4E1BC, symBinAddr: 0x100028EDC, symSize: 0xC }
  - { offset: 0x5F5FF, size: 0x8, addend: 0x0, symName: _OUTLINED_FUNCTION_38, symObjAddr: 0x4E1C8, symBinAddr: 0x100028EE8, symSize: 0xC }
  - { offset: 0x5F617, size: 0x8, addend: 0x0, symName: _OUTLINED_FUNCTION_39, symObjAddr: 0x4E1D4, symBinAddr: 0x100028EF4, symSize: 0x14 }
  - { offset: 0x5F62F, size: 0x8, addend: 0x0, symName: _OUTLINED_FUNCTION_40, symObjAddr: 0x4E1E8, symBinAddr: 0x100028F08, symSize: 0xC }
  - { offset: 0x5F647, size: 0x8, addend: 0x0, symName: _OUTLINED_FUNCTION_41, symObjAddr: 0x4E1F4, symBinAddr: 0x100028F14, symSize: 0x14 }
  - { offset: 0x5F65F, size: 0x8, addend: 0x0, symName: _OUTLINED_FUNCTION_42, symObjAddr: 0x4E208, symBinAddr: 0x100028F28, symSize: 0x14 }
  - { offset: 0x5F677, size: 0x8, addend: 0x0, symName: _OUTLINED_FUNCTION_43, symObjAddr: 0x4E21C, symBinAddr: 0x100028F3C, symSize: 0x14 }
  - { offset: 0x5F6AC, size: 0x8, addend: 0x0, symName: __RNvCshXwFllX56pT_7___rustc18___rust_start_panic, symObjAddr: 0x0, symBinAddr: 0x100028F50, symSize: 0xA0 }
  - { offset: 0x5F77B, size: 0x8, addend: 0x0, symName: __ZN12panic_unwind3imp5panic17exception_cleanup17h7bb4190b2d6c44abE, symObjAddr: 0x108, symBinAddr: 0x100029058, symSize: 0x18 }
  - { offset: 0x5F796, size: 0x8, addend: 0x0, symName: __RNvCshXwFllX56pT_7___rustc18___rust_start_panic, symObjAddr: 0x0, symBinAddr: 0x100028F50, symSize: 0xA0 }
  - { offset: 0x5F81F, size: 0x8, addend: 0x0, symName: __RNvCshXwFllX56pT_7___rustc20___rust_panic_cleanup, symObjAddr: 0xA0, symBinAddr: 0x100028FF0, symSize: 0x68 }
  - { offset: 0x5F90F, size: 0x8, addend: 0x0, symName: '__ZN4core3ptr49drop_in_place$LT$panic_unwind..imp..Exception$GT$17h3c49e7f075fabda9E', symObjAddr: 0x120, symBinAddr: 0x100029070, symSize: 0x78 }
  - { offset: 0x5FA14, size: 0x8, addend: 0x0, symName: '__ZN4core3ptr74drop_in_place$LT$alloc..boxed..Box$LT$panic_unwind..imp..Exception$GT$$GT$17hdb5650947743323bE', symObjAddr: 0x198, symBinAddr: 0x1000290E8, symSize: 0x8C }
  - { offset: 0x5FC9A, size: 0x8, addend: 0x0, symName: __ZN5alloc5alloc18handle_alloc_error17h77990a064974ed31E, symObjAddr: 0x2EC4, symBinAddr: 0x100039AC0, symSize: 0x18 }
  - { offset: 0x5FCF0, size: 0x8, addend: 0x0, symName: '__ZN254_$LT$alloc..boxed..convert..$LT$impl$u20$core..convert..From$LT$alloc..string..String$GT$$u20$for$u20$alloc..boxed..Box$LT$dyn$u20$core..error..Error$u2b$core..marker..Sync$u2b$core..marker..Send$GT$$GT$..from..StringError$u20$as$u20$core..fmt..Debug$GT$3fmt17h7a3ed111c7d617e0E', symObjAddr: 0xD0, symBinAddr: 0x100030B5C, symSize: 0x10 }
  - { offset: 0x5FDC0, size: 0x8, addend: 0x0, symName: '__ZN256_$LT$alloc..boxed..convert..$LT$impl$u20$core..convert..From$LT$alloc..string..String$GT$$u20$for$u20$alloc..boxed..Box$LT$dyn$u20$core..error..Error$u2b$core..marker..Sync$u2b$core..marker..Send$GT$$GT$..from..StringError$u20$as$u20$core..fmt..Display$GT$3fmt17hf1f0ab42584a59c4E', symObjAddr: 0xE0, symBinAddr: 0x100030B6C, symSize: 0x10 }
  - { offset: 0x5FE9E, size: 0x8, addend: 0x0, symName: __ZN5alloc3ffi5c_str7CString19_from_vec_unchecked17h1836188feadd5beaE, symObjAddr: 0x930, symBinAddr: 0x100030B7C, symSize: 0x118 }
  - { offset: 0x6019D, size: 0x8, addend: 0x0, symName: '__ZN81_$LT$$RF$$u5b$u8$u5d$$u20$as$u20$alloc..ffi..c_str..CString..new..SpecNewImpl$GT$13spec_new_impl17hb987ddbe28dfb313E', symObjAddr: 0x516C, symBinAddr: 0x100030F44, symSize: 0x114 }
  - { offset: 0x60548, size: 0x8, addend: 0x0, symName: '__ZN5alloc7raw_vec20RawVecInner$LT$A$GT$11finish_grow17hb6fd2d02dd1b2f62E', symObjAddr: 0x484C, symBinAddr: 0x100039B0C, symSize: 0x8C }
  - { offset: 0x60718, size: 0x8, addend: 0x0, symName: __ZN5alloc7raw_vec12handle_error17he4f6e0c101caed0fE, symObjAddr: 0x47B8, symBinAddr: 0x100039AD8, symSize: 0x14 }
  - { offset: 0x6075D, size: 0x8, addend: 0x0, symName: __ZN5alloc7raw_vec17capacity_overflow17hfff3ed88f2283f35E, symObjAddr: 0x47CC, symBinAddr: 0x100039AEC, symSize: 0x20 }
  - { offset: 0x6078D, size: 0x8, addend: 0x0, symName: '__ZN5alloc7raw_vec20RawVecInner$LT$A$GT$7reserve21do_reserve_and_handle17h1d0a5d9416582a4fE', symObjAddr: 0x48D8, symBinAddr: 0x100039B98, symSize: 0x78 }
  - { offset: 0x609D6, size: 0x8, addend: 0x0, symName: __ZN5alloc6string6String15from_utf8_lossy17hfb27054e23a2c9beE, symObjAddr: 0x3E04, symBinAddr: 0x100030D08, symSize: 0x228 }
  - { offset: 0x60F25, size: 0x8, addend: 0x0, symName: '__ZN98_$LT$alloc..string..String$u20$as$u20$core..convert..From$LT$alloc..borrow..Cow$LT$str$GT$$GT$$GT$4from17h663b74a2d196ff68E', symObjAddr: 0x58C4, symBinAddr: 0x100031058, symSize: 0x94 }
  - { offset: 0x610BA, size: 0x8, addend: 0x0, symName: __ZN5alloc4sync32arcinner_layout_for_value_layout17he7a50cf134bde959E, symObjAddr: 0x2070, symBinAddr: 0x100030C94, symSize: 0x74 }
  - { offset: 0x613CA, size: 0x8, addend: 0x0, symName: '__ZN69_$LT$core..alloc..layout..LayoutError$u20$as$u20$core..fmt..Debug$GT$3fmt17hd2fc890758120e4fE', symObjAddr: 0x4C30, symBinAddr: 0x100030F30, symSize: 0x14 }
  - { offset: 0x6146D, size: 0x8, addend: 0x0, symName: '__ZN71_$LT$core..ops..range..Range$LT$Idx$GT$$u20$as$u20$core..fmt..Debug$GT$3fmt17hf0deada47b1f352aE', symObjAddr: 0x1BEDC, symBinAddr: 0x1000358F8, symSize: 0x5C }
  - { offset: 0x61695, size: 0x8, addend: 0x0, symName: '__ZN4core4char7methods22_$LT$impl$u20$char$GT$16escape_debug_ext17h4c16b89dabeccf7cE', symObjAddr: 0x15128, symBinAddr: 0x100034D48, symSize: 0x284 }
  - { offset: 0x61CB4, size: 0x8, addend: 0x0, symName: __ZN4core6option13expect_failed17h0c7474fae24b826bE, symObjAddr: 0x15908, symBinAddr: 0x100039D64, symSize: 0x30 }
  - { offset: 0x61CE4, size: 0x8, addend: 0x0, symName: __ZN4core6option13unwrap_failed17h6f284828446285e6E, symObjAddr: 0x15938, symBinAddr: 0x100039D94, symSize: 0x1C }
  - { offset: 0x62167, size: 0x8, addend: 0x0, symName: __ZN4core5slice5index16slice_index_fail8do_panic7runtime17h1eecf9f5a38d05efE, symObjAddr: 0x15664, symBinAddr: 0x100039CBC, symSize: 0x38 }
  - { offset: 0x62181, size: 0x8, addend: 0x0, symName: __ZN4core5slice5index16slice_index_fail8do_panic7runtime17ha161725312810c5cE, symObjAddr: 0x1569C, symBinAddr: 0x100039CF4, symSize: 0x38 }
  - { offset: 0x6219B, size: 0x8, addend: 0x0, symName: __ZN4core5slice5index16slice_index_fail8do_panic7runtime17hb94d300c34d34b93E, symObjAddr: 0x156D4, symBinAddr: 0x100039D2C, symSize: 0x38 }
  - { offset: 0x621B7, size: 0x8, addend: 0x0, symName: __ZN4core5slice5index16slice_index_fail17h29aa2edd8429fa12E, symObjAddr: 0x15620, symBinAddr: 0x100039C78, symSize: 0x44 }
  - { offset: 0x62267, size: 0x8, addend: 0x0, symName: __ZN4core5slice6memchr14memchr_aligned17h5505eeecba6e215aE, symObjAddr: 0x1570C, symBinAddr: 0x100035018, symSize: 0xDC }
  - { offset: 0x6227E, size: 0x8, addend: 0x0, symName: __ZN4core5slice6memchr14memchr_aligned17h5505eeecba6e215aE, symObjAddr: 0x1570C, symBinAddr: 0x100035018, symSize: 0xDC }
  - { offset: 0x62293, size: 0x8, addend: 0x0, symName: __ZN4core5slice6memchr14memchr_aligned17h5505eeecba6e215aE, symObjAddr: 0x1570C, symBinAddr: 0x100035018, symSize: 0xDC }
  - { offset: 0x622A7, size: 0x8, addend: 0x0, symName: __ZN4core5slice6memchr14memchr_aligned17h5505eeecba6e215aE, symObjAddr: 0x1570C, symBinAddr: 0x100035018, symSize: 0xDC }
  - { offset: 0x622BC, size: 0x8, addend: 0x0, symName: __ZN4core5slice6memchr14memchr_aligned17h5505eeecba6e215aE, symObjAddr: 0x1570C, symBinAddr: 0x100035018, symSize: 0xDC }
  - { offset: 0x62369, size: 0x8, addend: 0x0, symName: __ZN4core5slice6memchr7memrchr17hc08cad9d3b830a0dE, symObjAddr: 0x157E8, symBinAddr: 0x1000350F4, symSize: 0x120 }
  - { offset: 0x62594, size: 0x8, addend: 0x0, symName: __ZN4core5slice4sort6shared9smallsort22panic_on_ord_violation17h7d8e6153c5d32400E, symObjAddr: 0x15524, symBinAddr: 0x100039C58, symSize: 0x20 }
  - { offset: 0x625BB, size: 0x8, addend: 0x0, symName: __ZN4core5slice4sort6stable5drift11sqrt_approx17h06c87c8d90ff9c46E, symObjAddr: 0x15544, symBinAddr: 0x100034FEC, symSize: 0x2C }
  - { offset: 0x6269B, size: 0x8, addend: 0x0, symName: __ZN4core3fmt9Formatter10debug_list17h395cd15156f16653E, symObjAddr: 0x96D4, symBinAddr: 0x100032A50, symSize: 0x48 }
  - { offset: 0x626DA, size: 0x8, addend: 0x0, symName: __ZN4core3fmt9Formatter11debug_tuple17hde1d8ea216d0169aE, symObjAddr: 0x971C, symBinAddr: 0x100032A98, symSize: 0x50 }
  - { offset: 0x62726, size: 0x8, addend: 0x0, symName: __ZN4core3fmt9Formatter12debug_struct17h9026b03fc9492b76E, symObjAddr: 0x976C, symBinAddr: 0x100032AE8, symSize: 0x3C }
  - { offset: 0x6278B, size: 0x8, addend: 0x0, symName: __ZN4core3fmt9Formatter12pad_integral17h3ce8c974c7a8a604E, symObjAddr: 0x9824, symBinAddr: 0x100032BA0, symSize: 0x3B4 }
  - { offset: 0x62A9D, size: 0x8, addend: 0x0, symName: __ZN4core3fmt9Formatter25debug_tuple_field2_finish17hc0e59394541b7469E, symObjAddr: 0xA190, symBinAddr: 0x100032F54, symSize: 0x1D8 }
  - { offset: 0x62D94, size: 0x8, addend: 0x0, symName: __ZN4core3fmt9Formatter26debug_struct_field1_finish17h75f2deabd831dd93E, symObjAddr: 0xAF48, symBinAddr: 0x10003312C, symSize: 0xD0 }
  - { offset: 0x62E69, size: 0x8, addend: 0x0, symName: __ZN4core3fmt9Formatter26debug_struct_field2_finish17hab300bfeda785df5E, symObjAddr: 0xB018, symBinAddr: 0x1000331FC, symSize: 0x104 }
  - { offset: 0x62F3E, size: 0x8, addend: 0x0, symName: __ZN4core3fmt9Formatter3pad17h9af9e8f45d670087E, symObjAddr: 0xB62C, symBinAddr: 0x100033300, symSize: 0x304 }
  - { offset: 0x63299, size: 0x8, addend: 0x0, symName: __ZN4core3fmt9Formatter9write_str17h0a2531327af07633E, symObjAddr: 0xB9DC, symBinAddr: 0x100033604, symSize: 0x10 }
  - { offset: 0x63302, size: 0x8, addend: 0x0, symName: __ZN4core3fmt8builders11DebugStruct5field17h58caabf81ace0911E, symObjAddr: 0x8C40, symBinAddr: 0x10003268C, symSize: 0x1B4 }
  - { offset: 0x6350C, size: 0x8, addend: 0x0, symName: __ZN4core3fmt8builders11DebugStruct6finish17hf5d8147ab0af7304E, symObjAddr: 0x8DF4, symBinAddr: 0x100032840, symSize: 0x7C }
  - { offset: 0x63629, size: 0x8, addend: 0x0, symName: __ZN4core3fmt8builders10DebugTuple5field17h8cf7638994ba1cdeE, symObjAddr: 0x895C, symBinAddr: 0x100032490, symSize: 0x148 }
  - { offset: 0x637A6, size: 0x8, addend: 0x0, symName: __ZN4core3fmt8builders10DebugTuple6finish17ha83c0a3a3a8264beE, symObjAddr: 0x8AA4, symBinAddr: 0x1000325D8, symSize: 0xB4 }
  - { offset: 0x638D7, size: 0x8, addend: 0x0, symName: __ZN4core3fmt8builders8DebugSet5entry17h8549c21c9400d406E, symObjAddr: 0x942C, symBinAddr: 0x1000328BC, symSize: 0x148 }
  - { offset: 0x63AB3, size: 0x8, addend: 0x0, symName: __ZN4core3fmt8builders9DebugList6finish17h2cba8fbe7a4497f8E, symObjAddr: 0x9688, symBinAddr: 0x100032A04, symSize: 0x4C }
  - { offset: 0x63B2C, size: 0x8, addend: 0x0, symName: '__ZN68_$LT$core..fmt..builders..PadAdapter$u20$as$u20$core..fmt..Write$GT$10write_char17h415daf5e83f5a71cE', symObjAddr: 0x1AC9C, symBinAddr: 0x100035634, symSize: 0x80 }
  - { offset: 0x63B54, size: 0x8, addend: 0x0, symName: '__ZN68_$LT$core..fmt..builders..PadAdapter$u20$as$u20$core..fmt..Write$GT$9write_str17h0a67632c7cefcdb4E', symObjAddr: 0x1AD1C, symBinAddr: 0x1000356B4, symSize: 0x244 }
  - { offset: 0x63E0F, size: 0x8, addend: 0x0, symName: '__ZN57_$LT$core..fmt..Formatter$u20$as$u20$core..fmt..Write$GT$10write_char17h06dc63d8655c93f2E', symObjAddr: 0x176E0, symBinAddr: 0x100035600, symSize: 0x10 }
  - { offset: 0x63E48, size: 0x8, addend: 0x0, symName: '__ZN40_$LT$str$u20$as$u20$core..fmt..Debug$GT$3fmt17h2bb9f3519979c641E', symObjAddr: 0x2F4, symBinAddr: 0x1000310EC, symSize: 0x398 }
  - { offset: 0x6424F, size: 0x8, addend: 0x0, symName: '__ZN41_$LT$char$u20$as$u20$core..fmt..Debug$GT$3fmt17h7f8903e70721d93bE', symObjAddr: 0x68C, symBinAddr: 0x100031484, symSize: 0xA8 }
  - { offset: 0x64355, size: 0x8, addend: 0x0, symName: '__ZN42_$LT$$RF$T$u20$as$u20$core..fmt..Debug$GT$3fmt17h39e57ae1dd449601E', symObjAddr: 0x734, symBinAddr: 0x10003152C, symSize: 0x10 }
  - { offset: 0x64368, size: 0x8, addend: 0x0, symName: '__ZN42_$LT$$RF$T$u20$as$u20$core..fmt..Debug$GT$3fmt17h461836f21654eac1E', symObjAddr: 0x744, symBinAddr: 0x10003153C, symSize: 0xC }
  - { offset: 0x64382, size: 0x8, addend: 0x0, symName: '__ZN42_$LT$$RF$T$u20$as$u20$core..fmt..Debug$GT$3fmt17hc786ecc190a42d41E', symObjAddr: 0x768, symBinAddr: 0x100031548, symSize: 0x8 }
  - { offset: 0x643B5, size: 0x8, addend: 0x0, symName: '__ZN42_$LT$str$u20$as$u20$core..fmt..Display$GT$3fmt17h3dadcd149a82289cE', symObjAddr: 0x8E4, symBinAddr: 0x100031550, symSize: 0x14 }
  - { offset: 0x643DB, size: 0x8, addend: 0x0, symName: '__ZN43_$LT$char$u20$as$u20$core..fmt..Display$GT$3fmt17hccc65653b32ebe4fE', symObjAddr: 0x92C, symBinAddr: 0x100031564, symSize: 0xD4 }
  - { offset: 0x6444F, size: 0x8, addend: 0x0, symName: '__ZN44_$LT$$RF$T$u20$as$u20$core..fmt..Display$GT$3fmt17h93f82a851ab08097E', symObjAddr: 0xA10, symBinAddr: 0x100031638, symSize: 0x10 }
  - { offset: 0x644D1, size: 0x8, addend: 0x0, symName: '__ZN4core3fmt3num3imp21_$LT$impl$u20$u32$GT$10_fmt_inner17h94157436147dabcfE', symObjAddr: 0x1D60, symBinAddr: 0x1000317EC, symSize: 0x1F0 }
  - { offset: 0x64589, size: 0x8, addend: 0x0, symName: '__ZN4core3fmt3num3imp21_$LT$impl$u20$u64$GT$10_fmt_inner17hf78fa1016b9d59f9E', symObjAddr: 0x1FAC, symBinAddr: 0x1000319DC, symSize: 0x1F8 }
  - { offset: 0x64641, size: 0x8, addend: 0x0, symName: '__ZN4core3fmt3num3imp51_$LT$impl$u20$core..fmt..Display$u20$for$u20$u8$GT$3fmt17haf97c475cbbdc210E', symObjAddr: 0x22D0, symBinAddr: 0x100031BD4, symSize: 0xB0 }
  - { offset: 0x64724, size: 0x8, addend: 0x0, symName: '__ZN4core3fmt3num3imp52_$LT$impl$u20$core..fmt..Display$u20$for$u20$i32$GT$3fmt17hc1020c4dffdb8fa5E', symObjAddr: 0x24A0, symBinAddr: 0x100031C84, symSize: 0x6C }
  - { offset: 0x647CC, size: 0x8, addend: 0x0, symName: '__ZN4core3fmt3num3imp52_$LT$impl$u20$core..fmt..Display$u20$for$u20$i64$GT$3fmt17h6c3a683c01ab8bb4E', symObjAddr: 0x250C, symBinAddr: 0x100031CF0, symSize: 0x6C }
  - { offset: 0x64874, size: 0x8, addend: 0x0, symName: '__ZN4core3fmt3num3imp52_$LT$impl$u20$core..fmt..Display$u20$for$u20$u32$GT$3fmt17hb2a64ebb0d1cc5d2E', symObjAddr: 0x2680, symBinAddr: 0x100031D5C, symSize: 0x60 }
  - { offset: 0x6491A, size: 0x8, addend: 0x0, symName: '__ZN4core3fmt3num3imp52_$LT$impl$u20$core..fmt..Display$u20$for$u20$u64$GT$3fmt17he597d29ee05c004eE', symObjAddr: 0x26E0, symBinAddr: 0x100031DBC, symSize: 0x60 }
  - { offset: 0x649EB, size: 0x8, addend: 0x0, symName: '__ZN4core3fmt3num52_$LT$impl$u20$core..fmt..LowerHex$u20$for$u20$u8$GT$3fmt17h1af3ec5dbe43683cE', symObjAddr: 0x459C, symBinAddr: 0x100032010, symSize: 0x74 }
  - { offset: 0x64A5A, size: 0x8, addend: 0x0, symName: '__ZN4core3fmt3num52_$LT$impl$u20$core..fmt..UpperHex$u20$for$u20$u8$GT$3fmt17h658fc9863ee21a29E', symObjAddr: 0x4684, symBinAddr: 0x100032084, symSize: 0x74 }
  - { offset: 0x64ADB, size: 0x8, addend: 0x0, symName: '__ZN4core3fmt3num53_$LT$impl$u20$core..fmt..LowerHex$u20$for$u20$i32$GT$3fmt17h827c9f3ef9226293E', symObjAddr: 0x4844, symBinAddr: 0x1000320F8, symSize: 0x74 }
  - { offset: 0x64B71, size: 0x8, addend: 0x0, symName: '__ZN4core3fmt3num53_$LT$impl$u20$core..fmt..UpperHex$u20$for$u20$i32$GT$3fmt17h9343e4ea521ef469E', symObjAddr: 0x4AFC, symBinAddr: 0x1000321E0, symSize: 0x74 }
  - { offset: 0x64BF5, size: 0x8, addend: 0x0, symName: '__ZN4core3fmt3num53_$LT$impl$u20$core..fmt..LowerHex$u20$for$u20$u64$GT$3fmt17h622e344edadcc297E', symObjAddr: 0x4A14, symBinAddr: 0x10003216C, symSize: 0x74 }
  - { offset: 0x64C64, size: 0x8, addend: 0x0, symName: '__ZN4core3fmt3num53_$LT$impl$u20$core..fmt..UpperHex$u20$for$u20$u64$GT$3fmt17h3101836b29e6a00aE', symObjAddr: 0x4CCC, symBinAddr: 0x100032254, symSize: 0x74 }
  - { offset: 0x64CC7, size: 0x8, addend: 0x0, symName: '__ZN4core3fmt3num50_$LT$impl$u20$core..fmt..Debug$u20$for$u20$u64$GT$3fmt17h26839409ee8d7cfaE', symObjAddr: 0x398C, symBinAddr: 0x100031E1C, symSize: 0xF4 }
  - { offset: 0x64DF4, size: 0x8, addend: 0x0, symName: '__ZN4core3fmt3num52_$LT$impl$u20$core..fmt..Debug$u20$for$u20$usize$GT$3fmt17h0f2d15c1de89bdc6E', symObjAddr: 0x4428, symBinAddr: 0x100031F10, symSize: 0x100 }
  - { offset: 0x64F79, size: 0x8, addend: 0x0, symName: __ZN4core3fmt17pointer_fmt_inner17hb3d81a6b5a782bd8E, symObjAddr: 0xF8C, symBinAddr: 0x100031738, symSize: 0xB4 }
  - { offset: 0x65048, size: 0x8, addend: 0x0, symName: __ZN4core3fmt5Write9write_fmt17h7f301659e7a515e5E, symObjAddr: 0x5DC8, symBinAddr: 0x1000322C8, symSize: 0x14 }
  - { offset: 0x650D5, size: 0x8, addend: 0x0, symName: __ZN4core3fmt5write17h64810b21425781ecE, symObjAddr: 0x86E8, symBinAddr: 0x1000322DC, symSize: 0x1B4 }
  - { offset: 0x65317, size: 0x8, addend: 0x0, symName: __ZN4core3fmt9Formatter12pad_integral12write_prefix17h2c4870e86a0170cbE, symObjAddr: 0x97A8, symBinAddr: 0x100032B24, symSize: 0x7C }
  - { offset: 0x6537B, size: 0x8, addend: 0x0, symName: '__ZN59_$LT$core..fmt..Arguments$u20$as$u20$core..fmt..Display$GT$3fmt17h37475dbdb5fb4019E', symObjAddr: 0x182DC, symBinAddr: 0x100035610, symSize: 0x10 }
  - { offset: 0x6548B, size: 0x8, addend: 0x0, symName: __ZN4core6result13unwrap_failed17h1f9c817951eee5c5E, symObjAddr: 0x15954, symBinAddr: 0x100039DB0, symSize: 0x48 }
  - { offset: 0x6567D, size: 0x8, addend: 0x0, symName: __ZN4core3str5count14do_count_chars17haf03aa108601295cE, symObjAddr: 0x13880, symBinAddr: 0x100033868, symSize: 0x72C }
  - { offset: 0x65A7E, size: 0x8, addend: 0x0, symName: __ZN4core3str5count23char_count_general_case17h481f16b9dee532cfE, symObjAddr: 0x13FAC, symBinAddr: 0x100033F94, symSize: 0x2A8 }
  - { offset: 0x65B26, size: 0x8, addend: 0x0, symName: __ZN4core3str16slice_error_fail17h7d5f7302866db666E, symObjAddr: 0x134D8, symBinAddr: 0x100039C10, symSize: 0xC }
  - { offset: 0x65B3F, size: 0x8, addend: 0x0, symName: __ZN4core3str19slice_error_fail_rt17h57a92e6672f97372E, symObjAddr: 0x13500, symBinAddr: 0x100033614, symSize: 0x254 }
  - { offset: 0x65C7A, size: 0x8, addend: 0x0, symName: __ZN4core3str7pattern11StrSearcher3new17h644cd50388149c5cE, symObjAddr: 0x14270, symBinAddr: 0x10003423C, symSize: 0x898 }
  - { offset: 0x65F35, size: 0x8, addend: 0x0, symName: __ZN4core3str8converts9from_utf817h2a788292d4279601E, symObjAddr: 0x14D7C, symBinAddr: 0x100034AD4, symSize: 0x274 }
  - { offset: 0x65F52, size: 0x8, addend: 0x0, symName: __ZN4core3str8converts9from_utf817h2a788292d4279601E, symObjAddr: 0x14D7C, symBinAddr: 0x100034AD4, symSize: 0x274 }
  - { offset: 0x65FD2, size: 0x8, addend: 0x0, symName: '__ZN87_$LT$core..str..lossy..Utf8Chunks$u20$as$u20$core..iter..traits..iterator..Iterator$GT$4next17h3c53a7c0d3887375E', symObjAddr: 0x1DDFC, symBinAddr: 0x100035954, symSize: 0x1C0 }
  - { offset: 0x661E6, size: 0x8, addend: 0x0, symName: __ZN4core3ffi5c_str4CStr19from_bytes_with_nul17h3eb41042a4761af1E, symObjAddr: 0xDAC, symBinAddr: 0x100031648, symSize: 0xF0 }
  - { offset: 0x66204, size: 0x8, addend: 0x0, symName: __ZN4core3ffi5c_str4CStr19from_bytes_with_nul17h3eb41042a4761af1E, symObjAddr: 0xDAC, symBinAddr: 0x100031648, symSize: 0xF0 }
  - { offset: 0x66340, size: 0x8, addend: 0x0, symName: __ZN4core4cell22panic_already_borrowed8do_panic7runtime17h8939eb485ef592bbE, symObjAddr: 0x14FFC, symBinAddr: 0x100039C28, symSize: 0x30 }
  - { offset: 0x6635C, size: 0x8, addend: 0x0, symName: __ZN4core4cell22panic_already_borrowed17he8deaa52232869b2E, symObjAddr: 0x14FF0, symBinAddr: 0x100039C1C, symSize: 0xC }
  - { offset: 0x66390, size: 0x8, addend: 0x0, symName: '__ZN65_$LT$core..cell..BorrowMutError$u20$as$u20$core..fmt..Display$GT$3fmt17h4c1c74d48b5b5b86E', symObjAddr: 0x197F4, symBinAddr: 0x100035620, symSize: 0x14 }
  - { offset: 0x663DE, size: 0x8, addend: 0x0, symName: __ZN4core7unicode12unicode_data15grapheme_extend11lookup_slow17h0aeaca650ed90bbeE, symObjAddr: 0x15EE0, symBinAddr: 0x100035214, symSize: 0x108 }
  - { offset: 0x665BD, size: 0x8, addend: 0x0, symName: __ZN4core7unicode9printable12is_printable17ha327fc6030662728E, symObjAddr: 0x163FC, symBinAddr: 0x10003531C, symSize: 0x2E4 }
  - { offset: 0x6685D, size: 0x8, addend: 0x0, symName: __ZN4core5alloc6layout6Layout19is_size_align_valid17h536214074413be3eE, symObjAddr: 0x15420, symBinAddr: 0x100034FCC, symSize: 0x20 }
  - { offset: 0x6687A, size: 0x8, addend: 0x0, symName: __ZN4core5alloc6layout6Layout19is_size_align_valid17h536214074413be3eE, symObjAddr: 0x15420, symBinAddr: 0x100034FCC, symSize: 0x20 }
  - { offset: 0x668B4, size: 0x8, addend: 0x0, symName: __ZN4core9panicking11panic_const23panic_const_div_by_zero17hb1dd333295147004E, symObjAddr: 0x166E0, symBinAddr: 0x100039DF8, symSize: 0x1C }
  - { offset: 0x668CE, size: 0x8, addend: 0x0, symName: __ZN4core9panicking11panic_const23panic_const_rem_by_zero17h11ee5fec2018f001E, symObjAddr: 0x16718, symBinAddr: 0x100039E14, symSize: 0x1C }
  - { offset: 0x668E8, size: 0x8, addend: 0x0, symName: __ZN4core9panicking11panic_const24panic_const_add_overflow17hc9770482551148b1E, symObjAddr: 0x16734, symBinAddr: 0x100039E30, symSize: 0x1C }
  - { offset: 0x66902, size: 0x8, addend: 0x0, symName: __ZN4core9panicking13assert_failed17h2c4a26a306db510cE, symObjAddr: 0x16948, symBinAddr: 0x100039E4C, symSize: 0x28 }
  - { offset: 0x6691C, size: 0x8, addend: 0x0, symName: __ZN4core9panicking13assert_failed17h6b8349776e01e47aE, symObjAddr: 0x16970, symBinAddr: 0x100039E74, symSize: 0x28 }
  - { offset: 0x66936, size: 0x8, addend: 0x0, symName: __ZN4core9panicking14panic_nounwind17h7d65473595109eb7E, symObjAddr: 0x169C0, symBinAddr: 0x100039E9C, symSize: 0x20 }
  - { offset: 0x66964, size: 0x8, addend: 0x0, symName: __ZN4core9panicking16panic_in_cleanup17h7835a2d0cfa083fcE, symObjAddr: 0x16A1C, symBinAddr: 0x100039EBC, symSize: 0x18 }
  - { offset: 0x6697E, size: 0x8, addend: 0x0, symName: __ZN4core9panicking18panic_bounds_check17h6c2a8f4f22099848E, symObjAddr: 0x16A34, symBinAddr: 0x100039ED4, symSize: 0x38 }
  - { offset: 0x669AC, size: 0x8, addend: 0x0, symName: __ZN4core9panicking18panic_nounwind_fmt17hbf0afcf6d5b364a7E, symObjAddr: 0x16A6C, symBinAddr: 0x100039F0C, symSize: 0x30 }
  - { offset: 0x669F0, size: 0x8, addend: 0x0, symName: __ZN4core9panicking19assert_failed_inner17hee377df488a177d4E, symObjAddr: 0x16A9C, symBinAddr: 0x100039F3C, symSize: 0xBC }
  - { offset: 0x66A0A, size: 0x8, addend: 0x0, symName: __ZN4core9panicking19panic_cannot_unwind17h3992364626a126abE, symObjAddr: 0x16B58, symBinAddr: 0x100039FF8, symSize: 0x18 }
  - { offset: 0x66A24, size: 0x8, addend: 0x0, symName: __ZN4core9panicking26panic_nounwind_nobacktrace17h1a38f8b6f861f6a0E, symObjAddr: 0x16B70, symBinAddr: 0x10003A010, symSize: 0x20 }
  - { offset: 0x66A52, size: 0x8, addend: 0x0, symName: __ZN4core9panicking5panic17h30f5ec71e3af4326E, symObjAddr: 0x16C1C, symBinAddr: 0x10003A030, symSize: 0x14 }
  - { offset: 0x66A80, size: 0x8, addend: 0x0, symName: __ZN4core9panicking9panic_fmt17h6f8816b337451651E, symObjAddr: 0x16C30, symBinAddr: 0x10003A044, symSize: 0x28 }
  - { offset: 0x66AEE, size: 0x8, addend: 0x0, symName: _OUTLINED_FUNCTION_0, symObjAddr: 0x1E020, symBinAddr: 0x100035B14, symSize: 0x10 }
...
